
coop:     file format elf64-x86-64


Disassembly of section .init:

0000000000400938 <_init>:
  400938:	48 83 ec 08          	sub    $0x8,%rsp
  40093c:	48 8b 05 b5 16 20 00 	mov    0x2016b5(%rip),%rax        # 601ff8 <_DYNAMIC+0x200>
  400943:	48 85 c0             	test   %rax,%rax
  400946:	74 05                	je     40094d <_init+0x15>
  400948:	e8 23 01 00 00       	callq  400a70 <fflush@plt+0x10>
  40094d:	48 83 c4 08          	add    $0x8,%rsp
  400951:	c3                   	retq   

Disassembly of section .plt:

0000000000400960 <printf@plt-0x10>:
  400960:	ff 35 a2 16 20 00    	pushq  0x2016a2(%rip)        # 602008 <_GLOBAL_OFFSET_TABLE_+0x8>
  400966:	ff 25 a4 16 20 00    	jmpq   *0x2016a4(%rip)        # 602010 <_GLOBAL_OFFSET_TABLE_+0x10>
  40096c:	0f 1f 40 00          	nopl   0x0(%rax)

0000000000400970 <printf@plt>:
  400970:	ff 25 a2 16 20 00    	jmpq   *0x2016a2(%rip)        # 602018 <_GLOBAL_OFFSET_TABLE_+0x18>
  400976:	68 00 00 00 00       	pushq  $0x0
  40097b:	e9 e0 ff ff ff       	jmpq   400960 <_init+0x28>

0000000000400980 <puts@plt>:
  400980:	ff 25 9a 16 20 00    	jmpq   *0x20169a(%rip)        # 602020 <_GLOBAL_OFFSET_TABLE_+0x20>
  400986:	68 01 00 00 00       	pushq  $0x1
  40098b:	e9 d0 ff ff ff       	jmpq   400960 <_init+0x28>

0000000000400990 <_Znam@plt>:
  400990:	ff 25 92 16 20 00    	jmpq   *0x201692(%rip)        # 602028 <_GLOBAL_OFFSET_TABLE_+0x28>
  400996:	68 02 00 00 00       	pushq  $0x2
  40099b:	e9 c0 ff ff ff       	jmpq   400960 <_init+0x28>

00000000004009a0 <_ZdlPv@plt>:
  4009a0:	ff 25 8a 16 20 00    	jmpq   *0x20168a(%rip)        # 602030 <_GLOBAL_OFFSET_TABLE_+0x30>
  4009a6:	68 03 00 00 00       	pushq  $0x3
  4009ab:	e9 b0 ff ff ff       	jmpq   400960 <_init+0x28>

00000000004009b0 <_ZNSt8ios_base4InitC1Ev@plt>:
  4009b0:	ff 25 82 16 20 00    	jmpq   *0x201682(%rip)        # 602038 <_GLOBAL_OFFSET_TABLE_+0x38>
  4009b6:	68 04 00 00 00       	pushq  $0x4
  4009bb:	e9 a0 ff ff ff       	jmpq   400960 <_init+0x28>

00000000004009c0 <read@plt>:
  4009c0:	ff 25 7a 16 20 00    	jmpq   *0x20167a(%rip)        # 602040 <_GLOBAL_OFFSET_TABLE_+0x40>
  4009c6:	68 05 00 00 00       	pushq  $0x5
  4009cb:	e9 90 ff ff ff       	jmpq   400960 <_init+0x28>

00000000004009d0 <__libc_start_main@plt>:
  4009d0:	ff 25 72 16 20 00    	jmpq   *0x201672(%rip)        # 602048 <_GLOBAL_OFFSET_TABLE_+0x48>
  4009d6:	68 06 00 00 00       	pushq  $0x6
  4009db:	e9 80 ff ff ff       	jmpq   400960 <_init+0x28>

00000000004009e0 <__cxa_atexit@plt>:
  4009e0:	ff 25 6a 16 20 00    	jmpq   *0x20166a(%rip)        # 602050 <_GLOBAL_OFFSET_TABLE_+0x50>
  4009e6:	68 07 00 00 00       	pushq  $0x7
  4009eb:	e9 70 ff ff ff       	jmpq   400960 <_init+0x28>

00000000004009f0 <_ZNSt8ios_base4InitD1Ev@plt>:
  4009f0:	ff 25 62 16 20 00    	jmpq   *0x201662(%rip)        # 602058 <_GLOBAL_OFFSET_TABLE_+0x58>
  4009f6:	68 08 00 00 00       	pushq  $0x8
  4009fb:	e9 60 ff ff ff       	jmpq   400960 <_init+0x28>

0000000000400a00 <__stack_chk_fail@plt>:
  400a00:	ff 25 5a 16 20 00    	jmpq   *0x20165a(%rip)        # 602060 <_GLOBAL_OFFSET_TABLE_+0x60>
  400a06:	68 09 00 00 00       	pushq  $0x9
  400a0b:	e9 50 ff ff ff       	jmpq   400960 <_init+0x28>

0000000000400a10 <dlopen@plt>:
  400a10:	ff 25 52 16 20 00    	jmpq   *0x201652(%rip)        # 602068 <_GLOBAL_OFFSET_TABLE_+0x68>
  400a16:	68 0a 00 00 00       	pushq  $0xa
  400a1b:	e9 40 ff ff ff       	jmpq   400960 <_init+0x28>

0000000000400a20 <dlsym@plt>:
  400a20:	ff 25 4a 16 20 00    	jmpq   *0x20164a(%rip)        # 602070 <_GLOBAL_OFFSET_TABLE_+0x70>
  400a26:	68 0b 00 00 00       	pushq  $0xb
  400a2b:	e9 30 ff ff ff       	jmpq   400960 <_init+0x28>

0000000000400a30 <__gxx_personality_v0@plt>:
  400a30:	ff 25 42 16 20 00    	jmpq   *0x201642(%rip)        # 602078 <_GLOBAL_OFFSET_TABLE_+0x78>
  400a36:	68 0c 00 00 00       	pushq  $0xc
  400a3b:	e9 20 ff ff ff       	jmpq   400960 <_init+0x28>

0000000000400a40 <_Znwm@plt>:
  400a40:	ff 25 3a 16 20 00    	jmpq   *0x20163a(%rip)        # 602080 <_GLOBAL_OFFSET_TABLE_+0x80>
  400a46:	68 0d 00 00 00       	pushq  $0xd
  400a4b:	e9 10 ff ff ff       	jmpq   400960 <_init+0x28>

0000000000400a50 <_Unwind_Resume@plt>:
  400a50:	ff 25 32 16 20 00    	jmpq   *0x201632(%rip)        # 602088 <_GLOBAL_OFFSET_TABLE_+0x88>
  400a56:	68 0e 00 00 00       	pushq  $0xe
  400a5b:	e9 00 ff ff ff       	jmpq   400960 <_init+0x28>

0000000000400a60 <fflush@plt>:
  400a60:	ff 25 2a 16 20 00    	jmpq   *0x20162a(%rip)        # 602090 <_GLOBAL_OFFSET_TABLE_+0x90>
  400a66:	68 0f 00 00 00       	pushq  $0xf
  400a6b:	e9 f0 fe ff ff       	jmpq   400960 <_init+0x28>

Disassembly of section .plt.got:

0000000000400a70 <.plt.got>:
  400a70:	ff 25 82 15 20 00    	jmpq   *0x201582(%rip)        # 601ff8 <_DYNAMIC+0x200>
  400a76:	66 90                	xchg   %ax,%ax

Disassembly of section .text:

0000000000400a80 <_start>:
  400a80:	31 ed                	xor    %ebp,%ebp
  400a82:	49 89 d1             	mov    %rdx,%r9
  400a85:	5e                   	pop    %rsi
  400a86:	48 89 e2             	mov    %rsp,%rdx
  400a89:	48 83 e4 f0          	and    $0xfffffffffffffff0,%rsp
  400a8d:	50                   	push   %rax
  400a8e:	54                   	push   %rsp
  400a8f:	49 c7 c0 c0 0f 40 00 	mov    $0x400fc0,%r8
  400a96:	48 c7 c1 50 0f 40 00 	mov    $0x400f50,%rcx
  400a9d:	48 c7 c7 76 0b 40 00 	mov    $0x400b76,%rdi
  400aa4:	e8 27 ff ff ff       	callq  4009d0 <__libc_start_main@plt>
  400aa9:	f4                   	hlt    
  400aaa:	66 0f 1f 44 00 00    	nopw   0x0(%rax,%rax,1)

0000000000400ab0 <deregister_tm_clones>:
  400ab0:	b8 af 20 60 00       	mov    $0x6020af,%eax
  400ab5:	55                   	push   %rbp
  400ab6:	48 2d a8 20 60 00    	sub    $0x6020a8,%rax
  400abc:	48 83 f8 0e          	cmp    $0xe,%rax
  400ac0:	48 89 e5             	mov    %rsp,%rbp
  400ac3:	76 1b                	jbe    400ae0 <deregister_tm_clones+0x30>
  400ac5:	b8 00 00 00 00       	mov    $0x0,%eax
  400aca:	48 85 c0             	test   %rax,%rax
  400acd:	74 11                	je     400ae0 <deregister_tm_clones+0x30>
  400acf:	5d                   	pop    %rbp
  400ad0:	bf a8 20 60 00       	mov    $0x6020a8,%edi
  400ad5:	ff e0                	jmpq   *%rax
  400ad7:	66 0f 1f 84 00 00 00 	nopw   0x0(%rax,%rax,1)
  400ade:	00 00 
  400ae0:	5d                   	pop    %rbp
  400ae1:	c3                   	retq   
  400ae2:	0f 1f 40 00          	nopl   0x0(%rax)
  400ae6:	66 2e 0f 1f 84 00 00 	nopw   %cs:0x0(%rax,%rax,1)
  400aed:	00 00 00 

0000000000400af0 <register_tm_clones>:
  400af0:	be a8 20 60 00       	mov    $0x6020a8,%esi
  400af5:	55                   	push   %rbp
  400af6:	48 81 ee a8 20 60 00 	sub    $0x6020a8,%rsi
  400afd:	48 c1 fe 03          	sar    $0x3,%rsi
  400b01:	48 89 e5             	mov    %rsp,%rbp
  400b04:	48 89 f0             	mov    %rsi,%rax
  400b07:	48 c1 e8 3f          	shr    $0x3f,%rax
  400b0b:	48 01 c6             	add    %rax,%rsi
  400b0e:	48 d1 fe             	sar    %rsi
  400b11:	74 15                	je     400b28 <register_tm_clones+0x38>
  400b13:	b8 00 00 00 00       	mov    $0x0,%eax
  400b18:	48 85 c0             	test   %rax,%rax
  400b1b:	74 0b                	je     400b28 <register_tm_clones+0x38>
  400b1d:	5d                   	pop    %rbp
  400b1e:	bf a8 20 60 00       	mov    $0x6020a8,%edi
  400b23:	ff e0                	jmpq   *%rax
  400b25:	0f 1f 00             	nopl   (%rax)
  400b28:	5d                   	pop    %rbp
  400b29:	c3                   	retq   
  400b2a:	66 0f 1f 44 00 00    	nopw   0x0(%rax,%rax,1)

0000000000400b30 <__do_global_dtors_aux>:
  400b30:	80 3d d1 15 20 00 00 	cmpb   $0x0,0x2015d1(%rip)        # 602108 <completed.7585>
  400b37:	75 11                	jne    400b4a <__do_global_dtors_aux+0x1a>
  400b39:	55                   	push   %rbp
  400b3a:	48 89 e5             	mov    %rsp,%rbp
  400b3d:	e8 6e ff ff ff       	callq  400ab0 <deregister_tm_clones>
  400b42:	5d                   	pop    %rbp
  400b43:	c6 05 be 15 20 00 01 	movb   $0x1,0x2015be(%rip)        # 602108 <completed.7585>
  400b4a:	f3 c3                	repz retq 
  400b4c:	0f 1f 40 00          	nopl   0x0(%rax)

0000000000400b50 <frame_dummy>:
  400b50:	bf f0 1d 60 00       	mov    $0x601df0,%edi
  400b55:	48 83 3f 00          	cmpq   $0x0,(%rdi)
  400b59:	75 05                	jne    400b60 <frame_dummy+0x10>
  400b5b:	eb 93                	jmp    400af0 <register_tm_clones>
  400b5d:	0f 1f 00             	nopl   (%rax)
  400b60:	b8 00 00 00 00       	mov    $0x0,%eax
  400b65:	48 85 c0             	test   %rax,%rax
  400b68:	74 f1                	je     400b5b <frame_dummy+0xb>
  400b6a:	55                   	push   %rbp
  400b6b:	48 89 e5             	mov    %rsp,%rbp
  400b6e:	ff d0                	callq  *%rax
  400b70:	5d                   	pop    %rbp
  400b71:	e9 7a ff ff ff       	jmpq   400af0 <register_tm_clones>

0000000000400b76 <main>:
  400b76:	55                   	push   %rbp
  400b77:	48 89 e5             	mov    %rsp,%rbp
  400b7a:	53                   	push   %rbx
  400b7b:	48 83 ec 68          	sub    $0x68,%rsp
  400b7f:	64 48 8b 04 25 28 00 	mov    %fs:0x28,%rax
  400b86:	00 00 
  400b88:	48 89 45 e8          	mov    %rax,-0x18(%rbp)
  400b8c:	31 c0                	xor    %eax,%eax
  400b8e:	48 8d 45 a0          	lea    -0x60(%rbp),%rax
  400b92:	48 89 c7             	mov    %rax,%rdi
  400b95:	e8 94 03 00 00       	callq  400f2e <_ZN9GuiButtonC1Ev>
  400b9a:	48 8d 45 d0          	lea    -0x30(%rbp),%rax
  400b9e:	48 89 c7             	mov    %rax,%rdi
  400ba1:	e8 26 01 00 00       	callq  400ccc <_ZN7StudentC1Ev>
  400ba6:	48 8d 45 b0          	lea    -0x50(%rbp),%rax
  400baa:	48 89 c7             	mov    %rax,%rdi
  400bad:	e8 7c 01 00 00       	callq  400d2e <_ZN6CourseC1Ev>
  400bb2:	48 8b 45 98          	mov    -0x68(%rbp),%rax
  400bb6:	48 8b 00             	mov    (%rax),%rax
  400bb9:	48 8b 00             	mov    (%rax),%rax
  400bbc:	48 8b 55 98          	mov    -0x68(%rbp),%rdx
  400bc0:	48 89 d7             	mov    %rdx,%rdi
  400bc3:	ff d0                	callq  *%rax
  400bc5:	48 8d 45 d0          	lea    -0x30(%rbp),%rax
  400bc9:	48 89 c7             	mov    %rax,%rdi
  400bcc:	e8 13 01 00 00       	callq  400ce4 <_ZN7Student10readStringEv>
  400bd1:	48 8b 45 98          	mov    -0x68(%rbp),%rax
  400bd5:	48 8b 00             	mov    (%rax),%rax
  400bd8:	48 83 c0 08          	add    $0x8,%rax
  400bdc:	48 8b 00             	mov    (%rax),%rax
  400bdf:	48 8d 55 d0          	lea    -0x30(%rbp),%rdx
  400be3:	48 8d 4a 08          	lea    0x8(%rdx),%rcx
  400be7:	48 8b 55 98          	mov    -0x68(%rbp),%rdx
  400beb:	48 89 ce             	mov    %rcx,%rsi
  400bee:	48 89 d7             	mov    %rdx,%rdi
  400bf1:	ff d0                	callq  *%rax
  400bf3:	bb 01 00 00 00       	mov    $0x1,%ebx
  400bf8:	48 8d 45 b0          	lea    -0x50(%rbp),%rax
  400bfc:	48 89 c7             	mov    %rax,%rdi
  400bff:	e8 70 02 00 00       	callq  400e74 <_ZN6CourseD1Ev>
  400c04:	89 d8                	mov    %ebx,%eax
  400c06:	48 8b 75 e8          	mov    -0x18(%rbp),%rsi
  400c0a:	64 48 33 34 25 28 00 	xor    %fs:0x28,%rsi
  400c11:	00 00 
  400c13:	74 21                	je     400c36 <main+0xc0>
  400c15:	eb 1a                	jmp    400c31 <main+0xbb>
  400c17:	48 89 c3             	mov    %rax,%rbx
  400c1a:	48 8d 45 b0          	lea    -0x50(%rbp),%rax
  400c1e:	48 89 c7             	mov    %rax,%rdi
  400c21:	e8 4e 02 00 00       	callq  400e74 <_ZN6CourseD1Ev>
  400c26:	48 89 d8             	mov    %rbx,%rax
  400c29:	48 89 c7             	mov    %rax,%rdi
  400c2c:	e8 1f fe ff ff       	callq  400a50 <_Unwind_Resume@plt>
  400c31:	e8 ca fd ff ff       	callq  400a00 <__stack_chk_fail@plt>
  400c36:	48 83 c4 68          	add    $0x68,%rsp
  400c3a:	5b                   	pop    %rbx
  400c3b:	5d                   	pop    %rbp
  400c3c:	c3                   	retq   

0000000000400c3d <_Z41__static_initialization_and_destruction_0ii>:
  400c3d:	55                   	push   %rbp
  400c3e:	48 89 e5             	mov    %rsp,%rbp
  400c41:	48 83 ec 10          	sub    $0x10,%rsp
  400c45:	89 7d fc             	mov    %edi,-0x4(%rbp)
  400c48:	89 75 f8             	mov    %esi,-0x8(%rbp)
  400c4b:	83 7d fc 01          	cmpl   $0x1,-0x4(%rbp)
  400c4f:	75 27                	jne    400c78 <_Z41__static_initialization_and_destruction_0ii+0x3b>
  400c51:	81 7d f8 ff ff 00 00 	cmpl   $0xffff,-0x8(%rbp)
  400c58:	75 1e                	jne    400c78 <_Z41__static_initialization_and_destruction_0ii+0x3b>
  400c5a:	bf 09 21 60 00       	mov    $0x602109,%edi
  400c5f:	e8 4c fd ff ff       	callq  4009b0 <_ZNSt8ios_base4InitC1Ev@plt>
  400c64:	ba a0 20 60 00       	mov    $0x6020a0,%edx
  400c69:	be 09 21 60 00       	mov    $0x602109,%esi
  400c6e:	bf f0 09 40 00       	mov    $0x4009f0,%edi
  400c73:	e8 68 fd ff ff       	callq  4009e0 <__cxa_atexit@plt>
  400c78:	90                   	nop
  400c79:	c9                   	leaveq 
  400c7a:	c3                   	retq   

0000000000400c7b <_GLOBAL__sub_I_main>:
  400c7b:	55                   	push   %rbp
  400c7c:	48 89 e5             	mov    %rsp,%rbp
  400c7f:	be ff ff 00 00       	mov    $0xffff,%esi
  400c84:	bf 01 00 00 00       	mov    $0x1,%edi
  400c89:	e8 af ff ff ff       	callq  400c3d <_Z41__static_initialization_and_destruction_0ii>
  400c8e:	5d                   	pop    %rbp
  400c8f:	c3                   	retq   

0000000000400c90 <_ZN9GuiButton12printfStringEPc>:
  400c90:	55                   	push   %rbp
  400c91:	48 89 e5             	mov    %rsp,%rbp
  400c94:	48 83 ec 10          	sub    $0x10,%rsp
  400c98:	48 89 7d f8          	mov    %rdi,-0x8(%rbp)
  400c9c:	48 89 75 f0          	mov    %rsi,-0x10(%rbp)
  400ca0:	48 8b 45 f0          	mov    -0x10(%rbp),%rax
  400ca4:	48 89 c7             	mov    %rax,%rdi
  400ca7:	e8 d4 fc ff ff       	callq  400980 <puts@plt>
  400cac:	90                   	nop
  400cad:	c9                   	leaveq 
  400cae:	c3                   	retq   
  400caf:	90                   	nop

0000000000400cb0 <_ZN9GuiButton7clickedEi>:
  400cb0:	55                   	push   %rbp
  400cb1:	48 89 e5             	mov    %rsp,%rbp
  400cb4:	48 83 ec 10          	sub    $0x10,%rsp
  400cb8:	48 89 7d f8          	mov    %rdi,-0x8(%rbp)
  400cbc:	89 75 f4             	mov    %esi,-0xc(%rbp)
  400cbf:	48 8b 45 f8          	mov    -0x8(%rbp),%rax
  400cc3:	48 8b 40 08          	mov    0x8(%rax),%rax
  400cc7:	ff d0                	callq  *%rax
  400cc9:	90                   	nop
  400cca:	c9                   	leaveq 
  400ccb:	c3                   	retq   

0000000000400ccc <_ZN7StudentC1Ev>:
  400ccc:	55                   	push   %rbp
  400ccd:	48 89 e5             	mov    %rsp,%rbp
  400cd0:	48 89 7d f8          	mov    %rdi,-0x8(%rbp)
  400cd4:	ba 28 10 40 00       	mov    $0x401028,%edx
  400cd9:	48 8b 45 f8          	mov    -0x8(%rbp),%rax
  400cdd:	48 89 10             	mov    %rdx,(%rax)
  400ce0:	90                   	nop
  400ce1:	5d                   	pop    %rbp
  400ce2:	c3                   	retq   
  400ce3:	90                   	nop

0000000000400ce4 <_ZN7Student10readStringEv>:
  400ce4:	55                   	push   %rbp
  400ce5:	48 89 e5             	mov    %rsp,%rbp
  400ce8:	48 83 ec 10          	sub    $0x10,%rsp
  400cec:	48 89 7d f8          	mov    %rdi,-0x8(%rbp)
  400cf0:	48 8b 45 f8          	mov    -0x8(%rbp),%rax
  400cf4:	48 83 c0 08          	add    $0x8,%rax
  400cf8:	ba 00 02 00 00       	mov    $0x200,%edx
  400cfd:	48 89 c6             	mov    %rax,%rsi
  400d00:	bf 00 00 00 00       	mov    $0x0,%edi
  400d05:	e8 b6 fc ff ff       	callq  4009c0 <read@plt>
  400d0a:	90                   	nop
  400d0b:	c9                   	leaveq 
  400d0c:	c3                   	retq   
  400d0d:	90                   	nop

0000000000400d0e <_ZN7Student12printfStringEPc>:
  400d0e:	55                   	push   %rbp
  400d0f:	48 89 e5             	mov    %rsp,%rbp
  400d12:	48 83 ec 10          	sub    $0x10,%rsp
  400d16:	48 89 7d f8          	mov    %rdi,-0x8(%rbp)
  400d1a:	48 89 75 f0          	mov    %rsi,-0x10(%rbp)
  400d1e:	48 8b 45 f0          	mov    -0x10(%rbp),%rax
  400d22:	48 89 c7             	mov    %rax,%rdi
  400d25:	e8 56 fc ff ff       	callq  400980 <puts@plt>
  400d2a:	90                   	nop
  400d2b:	c9                   	leaveq 
  400d2c:	c3                   	retq   
  400d2d:	90                   	nop

0000000000400d2e <_ZN6CourseC1Ev>:
  400d2e:	55                   	push   %rbp
  400d2f:	48 89 e5             	mov    %rsp,%rbp
  400d32:	53                   	push   %rbx
  400d33:	48 83 ec 28          	sub    $0x28,%rsp
  400d37:	48 89 7d d8          	mov    %rdi,-0x28(%rbp)
  400d3b:	ba f8 0f 40 00       	mov    $0x400ff8,%edx
  400d40:	48 8b 45 d8          	mov    -0x28(%rbp),%rax
  400d44:	48 89 10             	mov    %rdx,(%rax)
  400d47:	48 8b 45 d8          	mov    -0x28(%rbp),%rax
  400d4b:	c7 40 10 0a 00 00 00 	movl   $0xa,0x10(%rax)
  400d52:	48 8b 45 d8          	mov    -0x28(%rbp),%rax
  400d56:	8b 40 10             	mov    0x10(%rax),%eax
  400d59:	48 63 d8             	movslq %eax,%rbx
  400d5c:	48 b8 00 00 00 00 00 	movabs $0xfe0000000000000,%rax
  400d63:	00 e0 0f 
  400d66:	48 39 c3             	cmp    %rax,%rbx
  400d69:	77 0a                	ja     400d75 <_ZN6CourseC1Ev+0x47>
  400d6b:	48 8d 04 dd 00 00 00 	lea    0x0(,%rbx,8),%rax
  400d72:	00 
  400d73:	eb 07                	jmp    400d7c <_ZN6CourseC1Ev+0x4e>
  400d75:	48 c7 c0 ff ff ff ff 	mov    $0xffffffffffffffff,%rax
  400d7c:	48 89 c7             	mov    %rax,%rdi
  400d7f:	e8 0c fc ff ff       	callq  400990 <_Znam@plt>
  400d84:	48 89 c1             	mov    %rax,%rcx
  400d87:	48 89 ce             	mov    %rcx,%rsi
  400d8a:	48 8d 43 ff          	lea    -0x1(%rbx),%rax
  400d8e:	48 89 c2             	mov    %rax,%rdx
  400d91:	48 89 f0             	mov    %rsi,%rax
  400d94:	48 83 fa ff          	cmp    $0xffffffffffffffff,%rdx
  400d98:	74 11                	je     400dab <_ZN6CourseC1Ev+0x7d>
  400d9a:	48 c7 00 00 00 00 00 	movq   $0x0,(%rax)
  400da1:	48 83 c0 08          	add    $0x8,%rax
  400da5:	48 83 ea 01          	sub    $0x1,%rdx
  400da9:	eb e9                	jmp    400d94 <_ZN6CourseC1Ev+0x66>
  400dab:	48 8b 45 d8          	mov    -0x28(%rbp),%rax
  400daf:	48 89 48 08          	mov    %rcx,0x8(%rax)
  400db3:	c7 45 ec 00 00 00 00 	movl   $0x0,-0x14(%rbp)
  400dba:	48 8b 45 d8          	mov    -0x28(%rbp),%rax
  400dbe:	8b 40 10             	mov    0x10(%rax),%eax
  400dc1:	3b 45 ec             	cmp    -0x14(%rbp),%eax
  400dc4:	7e 33                	jle    400df9 <_ZN6CourseC1Ev+0xcb>
  400dc6:	bf 18 00 00 00       	mov    $0x18,%edi
  400dcb:	e8 70 fc ff ff       	callq  400a40 <_Znwm@plt>
  400dd0:	48 89 c3             	mov    %rax,%rbx
  400dd3:	48 89 df             	mov    %rbx,%rdi
  400dd6:	e8 f1 fe ff ff       	callq  400ccc <_ZN7StudentC1Ev>
  400ddb:	48 8b 45 d8          	mov    -0x28(%rbp),%rax
  400ddf:	48 8b 40 08          	mov    0x8(%rax),%rax
  400de3:	8b 55 ec             	mov    -0x14(%rbp),%edx
  400de6:	48 63 d2             	movslq %edx,%rdx
  400de9:	48 c1 e2 03          	shl    $0x3,%rdx
  400ded:	48 01 d0             	add    %rdx,%rax
  400df0:	48 89 18             	mov    %rbx,(%rax)
  400df3:	83 45 ec 01          	addl   $0x1,-0x14(%rbp)
  400df7:	eb c1                	jmp    400dba <_ZN6CourseC1Ev+0x8c>
  400df9:	90                   	nop
  400dfa:	48 83 c4 28          	add    $0x28,%rsp
  400dfe:	5b                   	pop    %rbx
  400dff:	5d                   	pop    %rbp
  400e00:	c3                   	retq   
  400e01:	90                   	nop

0000000000400e02 <_ZN6Course5mLoopEPc>:
  400e02:	55                   	push   %rbp
  400e03:	48 89 e5             	mov    %rsp,%rbp
  400e06:	48 83 ec 20          	sub    $0x20,%rsp
  400e0a:	48 89 7d e8          	mov    %rdi,-0x18(%rbp)
  400e0e:	48 89 75 e0          	mov    %rsi,-0x20(%rbp)
  400e12:	c7 45 fc 00 00 00 00 	movl   $0x0,-0x4(%rbp)
  400e19:	48 8b 45 e8          	mov    -0x18(%rbp),%rax
  400e1d:	8b 40 10             	mov    0x10(%rax),%eax
  400e20:	3b 45 fc             	cmp    -0x4(%rbp),%eax
  400e23:	7e 4c                	jle    400e71 <_ZN6Course5mLoopEPc+0x6f>
  400e25:	48 8b 45 e8          	mov    -0x18(%rbp),%rax
  400e29:	48 8b 40 08          	mov    0x8(%rax),%rax
  400e2d:	8b 55 fc             	mov    -0x4(%rbp),%edx
  400e30:	48 63 d2             	movslq %edx,%rdx
  400e33:	48 c1 e2 03          	shl    $0x3,%rdx
  400e37:	48 01 d0             	add    %rdx,%rax
  400e3a:	48 8b 00             	mov    (%rax),%rax
  400e3d:	48 8b 00             	mov    (%rax),%rax
  400e40:	48 83 c0 08          	add    $0x8,%rax
  400e44:	48 8b 00             	mov    (%rax),%rax
  400e47:	48 8b 55 e8          	mov    -0x18(%rbp),%rdx
  400e4b:	48 8b 52 08          	mov    0x8(%rdx),%rdx
  400e4f:	8b 4d fc             	mov    -0x4(%rbp),%ecx
  400e52:	48 63 c9             	movslq %ecx,%rcx
  400e55:	48 c1 e1 03          	shl    $0x3,%rcx
  400e59:	48 01 ca             	add    %rcx,%rdx
  400e5c:	48 8b 12             	mov    (%rdx),%rdx
  400e5f:	48 8b 4d e0          	mov    -0x20(%rbp),%rcx
  400e63:	48 89 ce             	mov    %rcx,%rsi
  400e66:	48 89 d7             	mov    %rdx,%rdi
  400e69:	ff d0                	callq  *%rax
  400e6b:	83 45 fc 01          	addl   $0x1,-0x4(%rbp)
  400e6f:	eb a8                	jmp    400e19 <_ZN6Course5mLoopEPc+0x17>
  400e71:	90                   	nop
  400e72:	c9                   	leaveq 
  400e73:	c3                   	retq   

0000000000400e74 <_ZN6CourseD1Ev>:
  400e74:	55                   	push   %rbp
  400e75:	48 89 e5             	mov    %rsp,%rbp
  400e78:	48 83 ec 10          	sub    $0x10,%rsp
  400e7c:	48 89 7d f8          	mov    %rdi,-0x8(%rbp)
  400e80:	ba f8 0f 40 00       	mov    $0x400ff8,%edx
  400e85:	48 8b 45 f8          	mov    -0x8(%rbp),%rax
  400e89:	48 89 10             	mov    %rdx,(%rax)
  400e8c:	48 8b 45 f8          	mov    -0x8(%rbp),%rax
  400e90:	48 8b 40 08          	mov    0x8(%rax),%rax
  400e94:	48 89 c7             	mov    %rax,%rdi
  400e97:	e8 04 fb ff ff       	callq  4009a0 <_ZdlPv@plt>
  400e9c:	b8 00 00 00 00       	mov    $0x0,%eax
  400ea1:	85 c0                	test   %eax,%eax
  400ea3:	74 0c                	je     400eb1 <_ZN6CourseD1Ev+0x3d>
  400ea5:	48 8b 45 f8          	mov    -0x8(%rbp),%rax
  400ea9:	48 89 c7             	mov    %rax,%rdi
  400eac:	e8 ef fa ff ff       	callq  4009a0 <_ZdlPv@plt>
  400eb1:	c9                   	leaveq 
  400eb2:	c3                   	retq   
  400eb3:	90                   	nop

0000000000400eb4 <_ZN6CourseD0Ev>:
  400eb4:	55                   	push   %rbp
  400eb5:	48 89 e5             	mov    %rsp,%rbp
  400eb8:	48 83 ec 10          	sub    $0x10,%rsp
  400ebc:	48 89 7d f8          	mov    %rdi,-0x8(%rbp)
  400ec0:	48 8b 45 f8          	mov    -0x8(%rbp),%rax
  400ec4:	48 89 c7             	mov    %rax,%rdi
  400ec7:	e8 a8 ff ff ff       	callq  400e74 <_ZN6CourseD1Ev>
  400ecc:	48 8b 45 f8          	mov    -0x8(%rbp),%rax
  400ed0:	48 89 c7             	mov    %rax,%rdi
  400ed3:	e8 c8 fa ff ff       	callq  4009a0 <_ZdlPv@plt>
  400ed8:	c9                   	leaveq 
  400ed9:	c3                   	retq   

0000000000400eda <_ZN6Course12printfSystemEv>:
  400eda:	55                   	push   %rbp
  400edb:	48 89 e5             	mov    %rsp,%rbp
  400ede:	48 83 ec 20          	sub    $0x20,%rsp
  400ee2:	48 89 7d e8          	mov    %rdi,-0x18(%rbp)
  400ee6:	be 01 00 00 00       	mov    $0x1,%esi
  400eeb:	bf d4 0f 40 00       	mov    $0x400fd4,%edi
  400ef0:	e8 1b fb ff ff       	callq  400a10 <dlopen@plt>
  400ef5:	48 89 45 f8          	mov    %rax,-0x8(%rbp)
  400ef9:	48 8b 45 f8          	mov    -0x8(%rbp),%rax
  400efd:	be de 0f 40 00       	mov    $0x400fde,%esi
  400f02:	48 89 c7             	mov    %rax,%rdi
  400f05:	e8 16 fb ff ff       	callq  400a20 <dlsym@plt>
  400f0a:	48 89 c6             	mov    %rax,%rsi
  400f0d:	bf e4 0f 40 00       	mov    $0x400fe4,%edi
  400f12:	b8 00 00 00 00       	mov    $0x0,%eax
  400f17:	e8 54 fa ff ff       	callq  400970 <printf@plt>
  400f1c:	48 8b 05 dd 11 20 00 	mov    0x2011dd(%rip),%rax        # 602100 <stdout@@GLIBC_2.2.5>
  400f23:	48 89 c7             	mov    %rax,%rdi
  400f26:	e8 35 fb ff ff       	callq  400a60 <fflush@plt>
  400f2b:	90                   	nop
  400f2c:	c9                   	leaveq 
  400f2d:	c3                   	retq   

0000000000400f2e <_ZN9GuiButtonC1Ev>:
  400f2e:	55                   	push   %rbp
  400f2f:	48 89 e5             	mov    %rsp,%rbp
  400f32:	48 89 7d f8          	mov    %rdi,-0x8(%rbp)
  400f36:	ba 48 10 40 00       	mov    $0x401048,%edx
  400f3b:	48 8b 45 f8          	mov    -0x8(%rbp),%rax
  400f3f:	48 89 10             	mov    %rdx,(%rax)
  400f42:	90                   	nop
  400f43:	5d                   	pop    %rbp
  400f44:	c3                   	retq   
  400f45:	66 2e 0f 1f 84 00 00 	nopw   %cs:0x0(%rax,%rax,1)
  400f4c:	00 00 00 
  400f4f:	90                   	nop

0000000000400f50 <__libc_csu_init>:
  400f50:	41 57                	push   %r15
  400f52:	41 56                	push   %r14
  400f54:	41 89 ff             	mov    %edi,%r15d
  400f57:	41 55                	push   %r13
  400f59:	41 54                	push   %r12
  400f5b:	4c 8d 25 76 0e 20 00 	lea    0x200e76(%rip),%r12        # 601dd8 <__frame_dummy_init_array_entry>
  400f62:	55                   	push   %rbp
  400f63:	48 8d 2d 7e 0e 20 00 	lea    0x200e7e(%rip),%rbp        # 601de8 <__init_array_end>
  400f6a:	53                   	push   %rbx
  400f6b:	49 89 f6             	mov    %rsi,%r14
  400f6e:	49 89 d5             	mov    %rdx,%r13
  400f71:	4c 29 e5             	sub    %r12,%rbp
  400f74:	48 83 ec 08          	sub    $0x8,%rsp
  400f78:	48 c1 fd 03          	sar    $0x3,%rbp
  400f7c:	e8 b7 f9 ff ff       	callq  400938 <_init>
  400f81:	48 85 ed             	test   %rbp,%rbp
  400f84:	74 20                	je     400fa6 <__libc_csu_init+0x56>
  400f86:	31 db                	xor    %ebx,%ebx
  400f88:	0f 1f 84 00 00 00 00 	nopl   0x0(%rax,%rax,1)
  400f8f:	00 
  400f90:	4c 89 ea             	mov    %r13,%rdx
  400f93:	4c 89 f6             	mov    %r14,%rsi
  400f96:	44 89 ff             	mov    %r15d,%edi
  400f99:	41 ff 14 dc          	callq  *(%r12,%rbx,8)
  400f9d:	48 83 c3 01          	add    $0x1,%rbx
  400fa1:	48 39 eb             	cmp    %rbp,%rbx
  400fa4:	75 ea                	jne    400f90 <__libc_csu_init+0x40>
  400fa6:	48 83 c4 08          	add    $0x8,%rsp
  400faa:	5b                   	pop    %rbx
  400fab:	5d                   	pop    %rbp
  400fac:	41 5c                	pop    %r12
  400fae:	41 5d                	pop    %r13
  400fb0:	41 5e                	pop    %r14
  400fb2:	41 5f                	pop    %r15
  400fb4:	c3                   	retq   
  400fb5:	90                   	nop
  400fb6:	66 2e 0f 1f 84 00 00 	nopw   %cs:0x0(%rax,%rax,1)
  400fbd:	00 00 00 

0000000000400fc0 <__libc_csu_fini>:
  400fc0:	f3 c3                	repz retq 

Disassembly of section .fini:

0000000000400fc4 <_fini>:
  400fc4:	48 83 ec 08          	sub    $0x8,%rsp
  400fc8:	48 83 c4 08          	add    $0x8,%rsp
  400fcc:	c3                   	retq   

coop:     file format elf64-x86-64


Disassembly of section .init:

0000000000400938 <_init>:
  400938:	48 83 ec 08          	sub    $0x8,%rsp
  40093c:	48 8b 05 b5 16 20 00 	mov    0x2016b5(%rip),%rax        # 601ff8 <_DYNAMIC+0x200>
  400943:	48 85 c0             	test   %rax,%rax
  400946:	74 05                	je     40094d <_init+0x15>
  400948:	e8 23 01 00 00       	callq  400a70 <fflush@plt+0x10>
  40094d:	48 83 c4 08          	add    $0x8,%rsp
  400951:	c3                   	retq   

Disassembly of section .plt:

0000000000400960 <printf@plt-0x10>:
  400960:	ff 35 a2 16 20 00    	pushq  0x2016a2(%rip)        # 602008 <_GLOBAL_OFFSET_TABLE_+0x8>
  400966:	ff 25 a4 16 20 00    	jmpq   *0x2016a4(%rip)        # 602010 <_GLOBAL_OFFSET_TABLE_+0x10>
  40096c:	0f 1f 40 00          	nopl   0x0(%rax)

0000000000400970 <printf@plt>:
  400970:	ff 25 a2 16 20 00    	jmpq   *0x2016a2(%rip)        # 602018 <_GLOBAL_OFFSET_TABLE_+0x18>
  400976:	68 00 00 00 00       	pushq  $0x0
  40097b:	e9 e0 ff ff ff       	jmpq   400960 <_init+0x28>

0000000000400980 <puts@plt>:
  400980:	ff 25 9a 16 20 00    	jmpq   *0x20169a(%rip)        # 602020 <_GLOBAL_OFFSET_TABLE_+0x20>
  400986:	68 01 00 00 00       	pushq  $0x1
  40098b:	e9 d0 ff ff ff       	jmpq   400960 <_init+0x28>

0000000000400990 <_Znam@plt>:
  400990:	ff 25 92 16 20 00    	jmpq   *0x201692(%rip)        # 602028 <_GLOBAL_OFFSET_TABLE_+0x28>
  400996:	68 02 00 00 00       	pushq  $0x2
  40099b:	e9 c0 ff ff ff       	jmpq   400960 <_init+0x28>

00000000004009a0 <_ZdlPv@plt>:
  4009a0:	ff 25 8a 16 20 00    	jmpq   *0x20168a(%rip)        # 602030 <_GLOBAL_OFFSET_TABLE_+0x30>
  4009a6:	68 03 00 00 00       	pushq  $0x3
  4009ab:	e9 b0 ff ff ff       	jmpq   400960 <_init+0x28>

00000000004009b0 <_ZNSt8ios_base4InitC1Ev@plt>:
  4009b0:	ff 25 82 16 20 00    	jmpq   *0x201682(%rip)        # 602038 <_GLOBAL_OFFSET_TABLE_+0x38>
  4009b6:	68 04 00 00 00       	pushq  $0x4
  4009bb:	e9 a0 ff ff ff       	jmpq   400960 <_init+0x28>

00000000004009c0 <read@plt>:
  4009c0:	ff 25 7a 16 20 00    	jmpq   *0x20167a(%rip)        # 602040 <_GLOBAL_OFFSET_TABLE_+0x40>
  4009c6:	68 05 00 00 00       	pushq  $0x5
  4009cb:	e9 90 ff ff ff       	jmpq   400960 <_init+0x28>

00000000004009d0 <__libc_start_main@plt>:
  4009d0:	ff 25 72 16 20 00    	jmpq   *0x201672(%rip)        # 602048 <_GLOBAL_OFFSET_TABLE_+0x48>
  4009d6:	68 06 00 00 00       	pushq  $0x6
  4009db:	e9 80 ff ff ff       	jmpq   400960 <_init+0x28>

00000000004009e0 <__cxa_atexit@plt>:
  4009e0:	ff 25 6a 16 20 00    	jmpq   *0x20166a(%rip)        # 602050 <_GLOBAL_OFFSET_TABLE_+0x50>
  4009e6:	68 07 00 00 00       	pushq  $0x7
  4009eb:	e9 70 ff ff ff       	jmpq   400960 <_init+0x28>

00000000004009f0 <_ZNSt8ios_base4InitD1Ev@plt>:
  4009f0:	ff 25 62 16 20 00    	jmpq   *0x201662(%rip)        # 602058 <_GLOBAL_OFFSET_TABLE_+0x58>
  4009f6:	68 08 00 00 00       	pushq  $0x8
  4009fb:	e9 60 ff ff ff       	jmpq   400960 <_init+0x28>

0000000000400a00 <__stack_chk_fail@plt>:
  400a00:	ff 25 5a 16 20 00    	jmpq   *0x20165a(%rip)        # 602060 <_GLOBAL_OFFSET_TABLE_+0x60>
  400a06:	68 09 00 00 00       	pushq  $0x9
  400a0b:	e9 50 ff ff ff       	jmpq   400960 <_init+0x28>

0000000000400a10 <dlopen@plt>:
  400a10:	ff 25 52 16 20 00    	jmpq   *0x201652(%rip)        # 602068 <_GLOBAL_OFFSET_TABLE_+0x68>
  400a16:	68 0a 00 00 00       	pushq  $0xa
  400a1b:	e9 40 ff ff ff       	jmpq   400960 <_init+0x28>

0000000000400a20 <dlsym@plt>:
  400a20:	ff 25 4a 16 20 00    	jmpq   *0x20164a(%rip)        # 602070 <_GLOBAL_OFFSET_TABLE_+0x70>
  400a26:	68 0b 00 00 00       	pushq  $0xb
  400a2b:	e9 30 ff ff ff       	jmpq   400960 <_init+0x28>

0000000000400a30 <__gxx_personality_v0@plt>:
  400a30:	ff 25 42 16 20 00    	jmpq   *0x201642(%rip)        # 602078 <_GLOBAL_OFFSET_TABLE_+0x78>
  400a36:	68 0c 00 00 00       	pushq  $0xc
  400a3b:	e9 20 ff ff ff       	jmpq   400960 <_init+0x28>

0000000000400a40 <_Znwm@plt>:
  400a40:	ff 25 3a 16 20 00    	jmpq   *0x20163a(%rip)        # 602080 <_GLOBAL_OFFSET_TABLE_+0x80>
  400a46:	68 0d 00 00 00       	pushq  $0xd
  400a4b:	e9 10 ff ff ff       	jmpq   400960 <_init+0x28>

0000000000400a50 <_Unwind_Resume@plt>:
  400a50:	ff 25 32 16 20 00    	jmpq   *0x201632(%rip)        # 602088 <_GLOBAL_OFFSET_TABLE_+0x88>
  400a56:	68 0e 00 00 00       	pushq  $0xe
  400a5b:	e9 00 ff ff ff       	jmpq   400960 <_init+0x28>

0000000000400a60 <fflush@plt>:
  400a60:	ff 25 2a 16 20 00    	jmpq   *0x20162a(%rip)        # 602090 <_GLOBAL_OFFSET_TABLE_+0x90>
  400a66:	68 0f 00 00 00       	pushq  $0xf
  400a6b:	e9 f0 fe ff ff       	jmpq   400960 <_init+0x28>

Disassembly of section .plt.got:

0000000000400a70 <.plt.got>:
  400a70:	ff 25 82 15 20 00    	jmpq   *0x201582(%rip)        # 601ff8 <_DYNAMIC+0x200>
  400a76:	66 90                	xchg   %ax,%ax

Disassembly of section .text:

0000000000400a80 <_start>:
  400a80:	31 ed                	xor    %ebp,%ebp
  400a82:	49 89 d1             	mov    %rdx,%r9
  400a85:	5e                   	pop    %rsi
  400a86:	48 89 e2             	mov    %rsp,%rdx
  400a89:	48 83 e4 f0          	and    $0xfffffffffffffff0,%rsp
  400a8d:	50                   	push   %rax
  400a8e:	54                   	push   %rsp
  400a8f:	49 c7 c0 d0 10 40 00 	mov    $0x4010d0,%r8
  400a96:	48 c7 c1 60 10 40 00 	mov    $0x401060,%rcx
  400a9d:	48 c7 c7 76 0b 40 00 	mov    $0x400b76,%rdi
  400aa4:	e8 27 ff ff ff       	callq  4009d0 <__libc_start_main@plt>
  400aa9:	f4                   	hlt    
  400aaa:	66 0f 1f 44 00 00    	nopw   0x0(%rax,%rax,1)

0000000000400ab0 <deregister_tm_clones>:
  400ab0:	b8 af 20 60 00       	mov    $0x6020af,%eax
  400ab5:	55                   	push   %rbp
  400ab6:	48 2d a8 20 60 00    	sub    $0x6020a8,%rax
  400abc:	48 83 f8 0e          	cmp    $0xe,%rax
  400ac0:	48 89 e5             	mov    %rsp,%rbp
  400ac3:	76 1b                	jbe    400ae0 <deregister_tm_clones+0x30>
  400ac5:	b8 00 00 00 00       	mov    $0x0,%eax
  400aca:	48 85 c0             	test   %rax,%rax
  400acd:	74 11                	je     400ae0 <deregister_tm_clones+0x30>
  400acf:	5d                   	pop    %rbp
  400ad0:	bf a8 20 60 00       	mov    $0x6020a8,%edi
  400ad5:	ff e0                	jmpq   *%rax
  400ad7:	66 0f 1f 84 00 00 00 	nopw   0x0(%rax,%rax,1)
  400ade:	00 00 
  400ae0:	5d                   	pop    %rbp
  400ae1:	c3                   	retq   
  400ae2:	0f 1f 40 00          	nopl   0x0(%rax)
  400ae6:	66 2e 0f 1f 84 00 00 	nopw   %cs:0x0(%rax,%rax,1)
  400aed:	00 00 00 

0000000000400af0 <register_tm_clones>:
  400af0:	be a8 20 60 00       	mov    $0x6020a8,%esi
  400af5:	55                   	push   %rbp
  400af6:	48 81 ee a8 20 60 00 	sub    $0x6020a8,%rsi
  400afd:	48 c1 fe 03          	sar    $0x3,%rsi
  400b01:	48 89 e5             	mov    %rsp,%rbp
  400b04:	48 89 f0             	mov    %rsi,%rax
  400b07:	48 c1 e8 3f          	shr    $0x3f,%rax
  400b0b:	48 01 c6             	add    %rax,%rsi
  400b0e:	48 d1 fe             	sar    %rsi
  400b11:	74 15                	je     400b28 <register_tm_clones+0x38>
  400b13:	b8 00 00 00 00       	mov    $0x0,%eax
  400b18:	48 85 c0             	test   %rax,%rax
  400b1b:	74 0b                	je     400b28 <register_tm_clones+0x38>
  400b1d:	5d                   	pop    %rbp
  400b1e:	bf a8 20 60 00       	mov    $0x6020a8,%edi
  400b23:	ff e0                	jmpq   *%rax
  400b25:	0f 1f 00             	nopl   (%rax)
  400b28:	5d                   	pop    %rbp
  400b29:	c3                   	retq   
  400b2a:	66 0f 1f 44 00 00    	nopw   0x0(%rax,%rax,1)

0000000000400b30 <__do_global_dtors_aux>:
  400b30:	80 3d d1 15 20 00 00 	cmpb   $0x0,0x2015d1(%rip)        # 602108 <completed.7585>
  400b37:	75 11                	jne    400b4a <__do_global_dtors_aux+0x1a>
  400b39:	55                   	push   %rbp
  400b3a:	48 89 e5             	mov    %rsp,%rbp
  400b3d:	e8 6e ff ff ff       	callq  400ab0 <deregister_tm_clones>
  400b42:	5d                   	pop    %rbp
  400b43:	c6 05 be 15 20 00 01 	movb   $0x1,0x2015be(%rip)        # 602108 <completed.7585>
  400b4a:	f3 c3                	repz retq 
  400b4c:	0f 1f 40 00          	nopl   0x0(%rax)

0000000000400b50 <frame_dummy>:
  400b50:	bf f0 1d 60 00       	mov    $0x601df0,%edi
  400b55:	48 83 3f 00          	cmpq   $0x0,(%rdi)
  400b59:	75 05                	jne    400b60 <frame_dummy+0x10>
  400b5b:	eb 93                	jmp    400af0 <register_tm_clones>
  400b5d:	0f 1f 00             	nopl   (%rax)
  400b60:	b8 00 00 00 00       	mov    $0x0,%eax
  400b65:	48 85 c0             	test   %rax,%rax
  400b68:	74 f1                	je     400b5b <frame_dummy+0xb>
  400b6a:	55                   	push   %rbp
  400b6b:	48 89 e5             	mov    %rsp,%rbp
  400b6e:	ff d0                	callq  *%rax
  400b70:	5d                   	pop    %rbp
  400b71:	e9 7a ff ff ff       	jmpq   400af0 <register_tm_clones>

0000000000400b76 <main>:
  400b76:	55                   	push   %rbp
  400b77:	48 89 e5             	mov    %rsp,%rbp
  400b7a:	53                   	push   %rbx
  400b7b:	48 83 ec 68          	sub    $0x68,%rsp
  400b7f:	64 48 8b 04 25 28 00 	mov    %fs:0x28,%rax
  400b86:	00 00 
  400b88:	48 89 45 e8          	mov    %rax,-0x18(%rbp)
  400b8c:	31 c0                	xor    %eax,%eax
  400b8e:	48 8d 45 a0          	lea    -0x60(%rbp),%rax
  400b92:	48 89 c7             	mov    %rax,%rdi
  400b95:	e8 88 04 00 00       	callq  401022 <_ZN9GuiButtonC1Ev>
  400b9a:	48 8d 45 d0          	lea    -0x30(%rbp),%rax
  400b9e:	48 89 c7             	mov    %rax,%rdi
  400ba1:	e8 1a 02 00 00       	callq  400dc0 <_ZN7StudentC1Ev>
  400ba6:	48 8d 45 b0          	lea    -0x50(%rbp),%rax
  400baa:	48 89 c7             	mov    %rax,%rdi
  400bad:	e8 70 02 00 00       	callq  400e22 <_ZN6CourseC1Ev>
  400bb2:	bf 30 00 00 00       	mov    $0x30,%edi
  400bb7:	e8 84 fe ff ff       	callq  400a40 <_Znwm@plt>
  400bbc:	48 89 c3             	mov    %rax,%rbx
  400bbf:	48 89 de             	mov    %rbx,%rsi
  400bc2:	b8 00 00 00 00       	mov    $0x0,%eax
  400bc7:	ba 06 00 00 00       	mov    $0x6,%edx
  400bcc:	48 89 f7             	mov    %rsi,%rdi
  400bcf:	48 89 d1             	mov    %rdx,%rcx
  400bd2:	f3 48 ab             	rep stos %rax,%es:(%rdi)
  400bd5:	48 89 df             	mov    %rbx,%rdi
  400bd8:	e8 5d 04 00 00       	callq  40103a <_ZN4ExamC1Ev>
  400bdd:	48 89 5d 98          	mov    %rbx,-0x68(%rbp)
  400be1:	48 8b 45 98          	mov    -0x68(%rbp),%rax
  400be5:	48 8b 00             	mov    (%rax),%rax
  400be8:	48 8b 00             	mov    (%rax),%rax
  400beb:	48 8b 55 98          	mov    -0x68(%rbp),%rdx
  400bef:	48 89 d7             	mov    %rdx,%rdi
  400bf2:	ff d0                	callq  *%rax
  400bf4:	48 8d 45 d0          	lea    -0x30(%rbp),%rax
  400bf8:	48 89 c7             	mov    %rax,%rdi
  400bfb:	e8 d8 01 00 00       	callq  400dd8 <_ZN7Student10readStringEv>
  400c00:	48 8b 45 98          	mov    -0x68(%rbp),%rax
  400c04:	48 8b 00             	mov    (%rax),%rax
  400c07:	48 83 c0 08          	add    $0x8,%rax
  400c0b:	48 8b 00             	mov    (%rax),%rax
  400c0e:	48 8d 55 d0          	lea    -0x30(%rbp),%rdx
  400c12:	48 8d 4a 08          	lea    0x8(%rdx),%rcx
  400c16:	48 8b 55 98          	mov    -0x68(%rbp),%rdx
  400c1a:	48 89 ce             	mov    %rcx,%rsi
  400c1d:	48 89 d7             	mov    %rdx,%rdi
  400c20:	ff d0                	callq  *%rax
  400c22:	bb 01 00 00 00       	mov    $0x1,%ebx
  400c27:	48 8d 45 b0          	lea    -0x50(%rbp),%rax
  400c2b:	48 89 c7             	mov    %rax,%rdi
  400c2e:	e8 35 03 00 00       	callq  400f68 <_ZN6CourseD1Ev>
  400c33:	89 d8                	mov    %ebx,%eax
  400c35:	48 8b 75 e8          	mov    -0x18(%rbp),%rsi
  400c39:	64 48 33 34 25 28 00 	xor    %fs:0x28,%rsi
  400c40:	00 00 
  400c42:	74 21                	je     400c65 <main+0xef>
  400c44:	eb 1a                	jmp    400c60 <main+0xea>
  400c46:	48 89 c3             	mov    %rax,%rbx
  400c49:	48 8d 45 b0          	lea    -0x50(%rbp),%rax
  400c4d:	48 89 c7             	mov    %rax,%rdi
  400c50:	e8 13 03 00 00       	callq  400f68 <_ZN6CourseD1Ev>
  400c55:	48 89 d8             	mov    %rbx,%rax
  400c58:	48 89 c7             	mov    %rax,%rdi
  400c5b:	e8 f0 fd ff ff       	callq  400a50 <_Unwind_Resume@plt>
  400c60:	e8 9b fd ff ff       	callq  400a00 <__stack_chk_fail@plt>
  400c65:	48 83 c4 68          	add    $0x68,%rsp
  400c69:	5b                   	pop    %rbx
  400c6a:	5d                   	pop    %rbp
  400c6b:	c3                   	retq   

0000000000400c6c <_Z41__static_initialization_and_destruction_0ii>:
  400c6c:	55                   	push   %rbp
  400c6d:	48 89 e5             	mov    %rsp,%rbp
  400c70:	48 83 ec 10          	sub    $0x10,%rsp
  400c74:	89 7d fc             	mov    %edi,-0x4(%rbp)
  400c77:	89 75 f8             	mov    %esi,-0x8(%rbp)
  400c7a:	83 7d fc 01          	cmpl   $0x1,-0x4(%rbp)
  400c7e:	75 27                	jne    400ca7 <_Z41__static_initialization_and_destruction_0ii+0x3b>
  400c80:	81 7d f8 ff ff 00 00 	cmpl   $0xffff,-0x8(%rbp)
  400c87:	75 1e                	jne    400ca7 <_Z41__static_initialization_and_destruction_0ii+0x3b>
  400c89:	bf 09 21 60 00       	mov    $0x602109,%edi
  400c8e:	e8 1d fd ff ff       	callq  4009b0 <_ZNSt8ios_base4InitC1Ev@plt>
  400c93:	ba a0 20 60 00       	mov    $0x6020a0,%edx
  400c98:	be 09 21 60 00       	mov    $0x602109,%esi
  400c9d:	bf f0 09 40 00       	mov    $0x4009f0,%edi
  400ca2:	e8 39 fd ff ff       	callq  4009e0 <__cxa_atexit@plt>
  400ca7:	90                   	nop
  400ca8:	c9                   	leaveq 
  400ca9:	c3                   	retq   

0000000000400caa <_GLOBAL__sub_I_main>:
  400caa:	55                   	push   %rbp
  400cab:	48 89 e5             	mov    %rsp,%rbp
  400cae:	be ff ff 00 00       	mov    $0xffff,%esi
  400cb3:	bf 01 00 00 00       	mov    $0x1,%edi
  400cb8:	e8 af ff ff ff       	callq  400c6c <_Z41__static_initialization_and_destruction_0ii>
  400cbd:	5d                   	pop    %rbp
  400cbe:	c3                   	retq   
  400cbf:	90                   	nop

0000000000400cc0 <_ZN9GuiButton12printfStringEPc>:
  400cc0:	55                   	push   %rbp
  400cc1:	48 89 e5             	mov    %rsp,%rbp
  400cc4:	48 83 ec 10          	sub    $0x10,%rsp
  400cc8:	48 89 7d f8          	mov    %rdi,-0x8(%rbp)
  400ccc:	48 89 75 f0          	mov    %rsi,-0x10(%rbp)
  400cd0:	48 8b 45 f0          	mov    -0x10(%rbp),%rax
  400cd4:	48 89 c7             	mov    %rax,%rdi
  400cd7:	e8 a4 fc ff ff       	callq  400980 <puts@plt>
  400cdc:	90                   	nop
  400cdd:	c9                   	leaveq 
  400cde:	c3                   	retq   
  400cdf:	90                   	nop

0000000000400ce0 <_ZN9GuiButton7clickedEi>:
  400ce0:	55                   	push   %rbp
  400ce1:	48 89 e5             	mov    %rsp,%rbp
  400ce4:	48 83 ec 10          	sub    $0x10,%rsp
  400ce8:	48 89 7d f8          	mov    %rdi,-0x8(%rbp)
  400cec:	89 75 f4             	mov    %esi,-0xc(%rbp)
  400cef:	48 8b 45 f8          	mov    -0x8(%rbp),%rax
  400cf3:	48 8b 40 08          	mov    0x8(%rax),%rax
  400cf7:	ff d0                	callq  *%rax
  400cf9:	90                   	nop
  400cfa:	c9                   	leaveq 
  400cfb:	c3                   	retq   

0000000000400cfc <_ZN4Exam10readStringEv>:
  400cfc:	55                   	push   %rbp
  400cfd:	48 89 e5             	mov    %rsp,%rbp
  400d00:	48 83 ec 10          	sub    $0x10,%rsp
  400d04:	48 89 7d f8          	mov    %rdi,-0x8(%rbp)
  400d08:	48 8b 45 f8          	mov    -0x8(%rbp),%rax
  400d0c:	48 83 c0 24          	add    $0x24,%rax
  400d10:	ba 00 02 00 00       	mov    $0x200,%edx
  400d15:	48 89 c6             	mov    %rax,%rsi
  400d18:	bf 00 00 00 00       	mov    $0x0,%edi
  400d1d:	e8 9e fc ff ff       	callq  4009c0 <read@plt>
  400d22:	90                   	nop
  400d23:	c9                   	leaveq 
  400d24:	c3                   	retq   
  400d25:	90                   	nop

0000000000400d26 <_ZN4Exam12printfStringEPc>:
  400d26:	55                   	push   %rbp
  400d27:	48 89 e5             	mov    %rsp,%rbp
  400d2a:	48 83 ec 10          	sub    $0x10,%rsp
  400d2e:	48 89 7d f8          	mov    %rdi,-0x8(%rbp)
  400d32:	48 89 75 f0          	mov    %rsi,-0x10(%rbp)
  400d36:	48 8b 45 f0          	mov    -0x10(%rbp),%rax
  400d3a:	48 89 c7             	mov    %rax,%rdi
  400d3d:	e8 3e fc ff ff       	callq  400980 <puts@plt>
  400d42:	90                   	nop
  400d43:	c9                   	leaveq 
  400d44:	c3                   	retq   
  400d45:	90                   	nop

0000000000400d46 <_ZN4Exam8sumScoreERl>:
  400d46:	55                   	push   %rbp
  400d47:	48 89 e5             	mov    %rsp,%rbp
  400d4a:	48 89 7d f8          	mov    %rdi,-0x8(%rbp)
  400d4e:	48 89 75 f0          	mov    %rsi,-0x10(%rbp)
  400d52:	48 8b 45 f8          	mov    -0x8(%rbp),%rax
  400d56:	8b 50 08             	mov    0x8(%rax),%edx
  400d59:	48 8b 45 f8          	mov    -0x8(%rbp),%rax
  400d5d:	8b 40 0c             	mov    0xc(%rax),%eax
  400d60:	01 c2                	add    %eax,%edx
  400d62:	48 8b 45 f8          	mov    -0x8(%rbp),%rax
  400d66:	8b 40 10             	mov    0x10(%rax),%eax
  400d69:	01 d0                	add    %edx,%eax
  400d6b:	48 63 d0             	movslq %eax,%rdx
  400d6e:	48 8b 45 f0          	mov    -0x10(%rbp),%rax
  400d72:	48 89 10             	mov    %rdx,(%rax)
  400d75:	90                   	nop
  400d76:	5d                   	pop    %rbp
  400d77:	c3                   	retq   

0000000000400d78 <_ZN4Exam16getWeightedScoreEv>:
  400d78:	55                   	push   %rbp
  400d79:	48 89 e5             	mov    %rsp,%rbp
  400d7c:	48 89 7d f8          	mov    %rdi,-0x8(%rbp)
  400d80:	48 8b 45 f8          	mov    -0x8(%rbp),%rax
  400d84:	8b 50 08             	mov    0x8(%rax),%edx
  400d87:	89 d0                	mov    %edx,%eax
  400d89:	c1 e0 02             	shl    $0x2,%eax
  400d8c:	8d 0c 10             	lea    (%rax,%rdx,1),%ecx
  400d8f:	48 8b 45 f8          	mov    -0x8(%rbp),%rax
  400d93:	8b 50 0c             	mov    0xc(%rax),%edx
  400d96:	89 d0                	mov    %edx,%eax
  400d98:	01 c0                	add    %eax,%eax
  400d9a:	01 d0                	add    %edx,%eax
  400d9c:	8d 14 01             	lea    (%rcx,%rax,1),%edx
  400d9f:	48 8b 45 f8          	mov    -0x8(%rbp),%rax
  400da3:	8b 40 10             	mov    0x10(%rax),%eax
  400da6:	01 c0                	add    %eax,%eax
  400da8:	8d 0c 02             	lea    (%rdx,%rax,1),%ecx
  400dab:	ba 56 55 55 55       	mov    $0x55555556,%edx
  400db0:	89 c8                	mov    %ecx,%eax
  400db2:	f7 ea                	imul   %edx
  400db4:	89 c8                	mov    %ecx,%eax
  400db6:	c1 f8 1f             	sar    $0x1f,%eax
  400db9:	29 c2                	sub    %eax,%edx
  400dbb:	89 d0                	mov    %edx,%eax
  400dbd:	5d                   	pop    %rbp
  400dbe:	c3                   	retq   
  400dbf:	90                   	nop

0000000000400dc0 <_ZN7StudentC1Ev>:
  400dc0:	55                   	push   %rbp
  400dc1:	48 89 e5             	mov    %rsp,%rbp
  400dc4:	48 89 7d f8          	mov    %rdi,-0x8(%rbp)
  400dc8:	ba 38 11 40 00       	mov    $0x401138,%edx
  400dcd:	48 8b 45 f8          	mov    -0x8(%rbp),%rax
  400dd1:	48 89 10             	mov    %rdx,(%rax)
  400dd4:	90                   	nop
  400dd5:	5d                   	pop    %rbp
  400dd6:	c3                   	retq   
  400dd7:	90                   	nop

0000000000400dd8 <_ZN7Student10readStringEv>:
  400dd8:	55                   	push   %rbp
  400dd9:	48 89 e5             	mov    %rsp,%rbp
  400ddc:	48 83 ec 10          	sub    $0x10,%rsp
  400de0:	48 89 7d f8          	mov    %rdi,-0x8(%rbp)
  400de4:	48 8b 45 f8          	mov    -0x8(%rbp),%rax
  400de8:	48 83 c0 08          	add    $0x8,%rax
  400dec:	ba 00 02 00 00       	mov    $0x200,%edx
  400df1:	48 89 c6             	mov    %rax,%rsi
  400df4:	bf 00 00 00 00       	mov    $0x0,%edi
  400df9:	e8 c2 fb ff ff       	callq  4009c0 <read@plt>
  400dfe:	90                   	nop
  400dff:	c9                   	leaveq 
  400e00:	c3                   	retq   
  400e01:	90                   	nop

0000000000400e02 <_ZN7Student12printfStringEPc>:
  400e02:	55                   	push   %rbp
  400e03:	48 89 e5             	mov    %rsp,%rbp
  400e06:	48 83 ec 10          	sub    $0x10,%rsp
  400e0a:	48 89 7d f8          	mov    %rdi,-0x8(%rbp)
  400e0e:	48 89 75 f0          	mov    %rsi,-0x10(%rbp)
  400e12:	48 8b 45 f0          	mov    -0x10(%rbp),%rax
  400e16:	48 89 c7             	mov    %rax,%rdi
  400e19:	e8 62 fb ff ff       	callq  400980 <puts@plt>
  400e1e:	90                   	nop
  400e1f:	c9                   	leaveq 
  400e20:	c3                   	retq   
  400e21:	90                   	nop

0000000000400e22 <_ZN6CourseC1Ev>:
  400e22:	55                   	push   %rbp
  400e23:	48 89 e5             	mov    %rsp,%rbp
  400e26:	53                   	push   %rbx
  400e27:	48 83 ec 28          	sub    $0x28,%rsp
  400e2b:	48 89 7d d8          	mov    %rdi,-0x28(%rbp)
  400e2f:	ba 08 11 40 00       	mov    $0x401108,%edx
  400e34:	48 8b 45 d8          	mov    -0x28(%rbp),%rax
  400e38:	48 89 10             	mov    %rdx,(%rax)
  400e3b:	48 8b 45 d8          	mov    -0x28(%rbp),%rax
  400e3f:	c7 40 10 0a 00 00 00 	movl   $0xa,0x10(%rax)
  400e46:	48 8b 45 d8          	mov    -0x28(%rbp),%rax
  400e4a:	8b 40 10             	mov    0x10(%rax),%eax
  400e4d:	48 63 d8             	movslq %eax,%rbx
  400e50:	48 b8 00 00 00 00 00 	movabs $0xfe0000000000000,%rax
  400e57:	00 e0 0f 
  400e5a:	48 39 c3             	cmp    %rax,%rbx
  400e5d:	77 0a                	ja     400e69 <_ZN6CourseC1Ev+0x47>
  400e5f:	48 8d 04 dd 00 00 00 	lea    0x0(,%rbx,8),%rax
  400e66:	00 
  400e67:	eb 07                	jmp    400e70 <_ZN6CourseC1Ev+0x4e>
  400e69:	48 c7 c0 ff ff ff ff 	mov    $0xffffffffffffffff,%rax
  400e70:	48 89 c7             	mov    %rax,%rdi
  400e73:	e8 18 fb ff ff       	callq  400990 <_Znam@plt>
  400e78:	48 89 c1             	mov    %rax,%rcx
  400e7b:	48 89 ce             	mov    %rcx,%rsi
  400e7e:	48 8d 43 ff          	lea    -0x1(%rbx),%rax
  400e82:	48 89 c2             	mov    %rax,%rdx
  400e85:	48 89 f0             	mov    %rsi,%rax
  400e88:	48 83 fa ff          	cmp    $0xffffffffffffffff,%rdx
  400e8c:	74 11                	je     400e9f <_ZN6CourseC1Ev+0x7d>
  400e8e:	48 c7 00 00 00 00 00 	movq   $0x0,(%rax)
  400e95:	48 83 c0 08          	add    $0x8,%rax
  400e99:	48 83 ea 01          	sub    $0x1,%rdx
  400e9d:	eb e9                	jmp    400e88 <_ZN6CourseC1Ev+0x66>
  400e9f:	48 8b 45 d8          	mov    -0x28(%rbp),%rax
  400ea3:	48 89 48 08          	mov    %rcx,0x8(%rax)
  400ea7:	c7 45 ec 00 00 00 00 	movl   $0x0,-0x14(%rbp)
  400eae:	48 8b 45 d8          	mov    -0x28(%rbp),%rax
  400eb2:	8b 40 10             	mov    0x10(%rax),%eax
  400eb5:	3b 45 ec             	cmp    -0x14(%rbp),%eax
  400eb8:	7e 33                	jle    400eed <_ZN6CourseC1Ev+0xcb>
  400eba:	bf 18 00 00 00       	mov    $0x18,%edi
  400ebf:	e8 7c fb ff ff       	callq  400a40 <_Znwm@plt>
  400ec4:	48 89 c3             	mov    %rax,%rbx
  400ec7:	48 89 df             	mov    %rbx,%rdi
  400eca:	e8 f1 fe ff ff       	callq  400dc0 <_ZN7StudentC1Ev>
  400ecf:	48 8b 45 d8          	mov    -0x28(%rbp),%rax
  400ed3:	48 8b 40 08          	mov    0x8(%rax),%rax
  400ed7:	8b 55 ec             	mov    -0x14(%rbp),%edx
  400eda:	48 63 d2             	movslq %edx,%rdx
  400edd:	48 c1 e2 03          	shl    $0x3,%rdx
  400ee1:	48 01 d0             	add    %rdx,%rax
  400ee4:	48 89 18             	mov    %rbx,(%rax)
  400ee7:	83 45 ec 01          	addl   $0x1,-0x14(%rbp)
  400eeb:	eb c1                	jmp    400eae <_ZN6CourseC1Ev+0x8c>
  400eed:	90                   	nop
  400eee:	48 83 c4 28          	add    $0x28,%rsp
  400ef2:	5b                   	pop    %rbx
  400ef3:	5d                   	pop    %rbp
  400ef4:	c3                   	retq   
  400ef5:	90                   	nop

0000000000400ef6 <_ZN6Course5mLoopEPc>:
  400ef6:	55                   	push   %rbp
  400ef7:	48 89 e5             	mov    %rsp,%rbp
  400efa:	48 83 ec 20          	sub    $0x20,%rsp
  400efe:	48 89 7d e8          	mov    %rdi,-0x18(%rbp)
  400f02:	48 89 75 e0          	mov    %rsi,-0x20(%rbp)
  400f06:	c7 45 fc 00 00 00 00 	movl   $0x0,-0x4(%rbp)
  400f0d:	48 8b 45 e8          	mov    -0x18(%rbp),%rax
  400f11:	8b 40 10             	mov    0x10(%rax),%eax
  400f14:	3b 45 fc             	cmp    -0x4(%rbp),%eax
  400f17:	7e 4c                	jle    400f65 <_ZN6Course5mLoopEPc+0x6f>
  400f19:	48 8b 45 e8          	mov    -0x18(%rbp),%rax
  400f1d:	48 8b 40 08          	mov    0x8(%rax),%rax
  400f21:	8b 55 fc             	mov    -0x4(%rbp),%edx
  400f24:	48 63 d2             	movslq %edx,%rdx
  400f27:	48 c1 e2 03          	shl    $0x3,%rdx
  400f2b:	48 01 d0             	add    %rdx,%rax
  400f2e:	48 8b 00             	mov    (%rax),%rax
  400f31:	48 8b 00             	mov    (%rax),%rax
  400f34:	48 83 c0 08          	add    $0x8,%rax
  400f38:	48 8b 00             	mov    (%rax),%rax
  400f3b:	48 8b 55 e8          	mov    -0x18(%rbp),%rdx
  400f3f:	48 8b 52 08          	mov    0x8(%rdx),%rdx
  400f43:	8b 4d fc             	mov    -0x4(%rbp),%ecx
  400f46:	48 63 c9             	movslq %ecx,%rcx
  400f49:	48 c1 e1 03          	shl    $0x3,%rcx
  400f4d:	48 01 ca             	add    %rcx,%rdx
  400f50:	48 8b 12             	mov    (%rdx),%rdx
  400f53:	48 8b 4d e0          	mov    -0x20(%rbp),%rcx
  400f57:	48 89 ce             	mov    %rcx,%rsi
  400f5a:	48 89 d7             	mov    %rdx,%rdi
  400f5d:	ff d0                	callq  *%rax
  400f5f:	83 45 fc 01          	addl   $0x1,-0x4(%rbp)
  400f63:	eb a8                	jmp    400f0d <_ZN6Course5mLoopEPc+0x17>
  400f65:	90                   	nop
  400f66:	c9                   	leaveq 
  400f67:	c3                   	retq   

0000000000400f68 <_ZN6CourseD1Ev>:
  400f68:	55                   	push   %rbp
  400f69:	48 89 e5             	mov    %rsp,%rbp
  400f6c:	48 83 ec 10          	sub    $0x10,%rsp
  400f70:	48 89 7d f8          	mov    %rdi,-0x8(%rbp)
  400f74:	ba 08 11 40 00       	mov    $0x401108,%edx
  400f79:	48 8b 45 f8          	mov    -0x8(%rbp),%rax
  400f7d:	48 89 10             	mov    %rdx,(%rax)
  400f80:	48 8b 45 f8          	mov    -0x8(%rbp),%rax
  400f84:	48 8b 40 08          	mov    0x8(%rax),%rax
  400f88:	48 89 c7             	mov    %rax,%rdi
  400f8b:	e8 10 fa ff ff       	callq  4009a0 <_ZdlPv@plt>
  400f90:	b8 00 00 00 00       	mov    $0x0,%eax
  400f95:	85 c0                	test   %eax,%eax
  400f97:	74 0c                	je     400fa5 <_ZN6CourseD1Ev+0x3d>
  400f99:	48 8b 45 f8          	mov    -0x8(%rbp),%rax
  400f9d:	48 89 c7             	mov    %rax,%rdi
  400fa0:	e8 fb f9 ff ff       	callq  4009a0 <_ZdlPv@plt>
  400fa5:	c9                   	leaveq 
  400fa6:	c3                   	retq   
  400fa7:	90                   	nop

0000000000400fa8 <_ZN6CourseD0Ev>:
  400fa8:	55                   	push   %rbp
  400fa9:	48 89 e5             	mov    %rsp,%rbp
  400fac:	48 83 ec 10          	sub    $0x10,%rsp
  400fb0:	48 89 7d f8          	mov    %rdi,-0x8(%rbp)
  400fb4:	48 8b 45 f8          	mov    -0x8(%rbp),%rax
  400fb8:	48 89 c7             	mov    %rax,%rdi
  400fbb:	e8 a8 ff ff ff       	callq  400f68 <_ZN6CourseD1Ev>
  400fc0:	48 8b 45 f8          	mov    -0x8(%rbp),%rax
  400fc4:	48 89 c7             	mov    %rax,%rdi
  400fc7:	e8 d4 f9 ff ff       	callq  4009a0 <_ZdlPv@plt>
  400fcc:	c9                   	leaveq 
  400fcd:	c3                   	retq   

0000000000400fce <_ZN6Course12printfSystemEv>:
  400fce:	55                   	push   %rbp
  400fcf:	48 89 e5             	mov    %rsp,%rbp
  400fd2:	48 83 ec 20          	sub    $0x20,%rsp
  400fd6:	48 89 7d e8          	mov    %rdi,-0x18(%rbp)
  400fda:	be 01 00 00 00       	mov    $0x1,%esi
  400fdf:	bf e4 10 40 00       	mov    $0x4010e4,%edi
  400fe4:	e8 27 fa ff ff       	callq  400a10 <dlopen@plt>
  400fe9:	48 89 45 f8          	mov    %rax,-0x8(%rbp)
  400fed:	48 8b 45 f8          	mov    -0x8(%rbp),%rax
  400ff1:	be ee 10 40 00       	mov    $0x4010ee,%esi
  400ff6:	48 89 c7             	mov    %rax,%rdi
  400ff9:	e8 22 fa ff ff       	callq  400a20 <dlsym@plt>
  400ffe:	48 89 c6             	mov    %rax,%rsi
  401001:	bf f4 10 40 00       	mov    $0x4010f4,%edi
  401006:	b8 00 00 00 00       	mov    $0x0,%eax
  40100b:	e8 60 f9 ff ff       	callq  400970 <printf@plt>
  401010:	48 8b 05 e9 10 20 00 	mov    0x2010e9(%rip),%rax        # 602100 <stdout@@GLIBC_2.2.5>
  401017:	48 89 c7             	mov    %rax,%rdi
  40101a:	e8 41 fa ff ff       	callq  400a60 <fflush@plt>
  40101f:	90                   	nop
  401020:	c9                   	leaveq 
  401021:	c3                   	retq   

0000000000401022 <_ZN9GuiButtonC1Ev>:
  401022:	55                   	push   %rbp
  401023:	48 89 e5             	mov    %rsp,%rbp
  401026:	48 89 7d f8          	mov    %rdi,-0x8(%rbp)
  40102a:	ba 88 11 40 00       	mov    $0x401188,%edx
  40102f:	48 8b 45 f8          	mov    -0x8(%rbp),%rax
  401033:	48 89 10             	mov    %rdx,(%rax)
  401036:	90                   	nop
  401037:	5d                   	pop    %rbp
  401038:	c3                   	retq   
  401039:	90                   	nop

000000000040103a <_ZN4ExamC1Ev>:
  40103a:	55                   	push   %rbp
  40103b:	48 89 e5             	mov    %rsp,%rbp
  40103e:	48 89 7d f8          	mov    %rdi,-0x8(%rbp)
  401042:	ba 58 11 40 00       	mov    $0x401158,%edx
  401047:	48 8b 45 f8          	mov    -0x8(%rbp),%rax
  40104b:	48 89 10             	mov    %rdx,(%rax)
  40104e:	90                   	nop
  40104f:	5d                   	pop    %rbp
  401050:	c3                   	retq   
  401051:	66 2e 0f 1f 84 00 00 	nopw   %cs:0x0(%rax,%rax,1)
  401058:	00 00 00 
  40105b:	0f 1f 44 00 00       	nopl   0x0(%rax,%rax,1)

0000000000401060 <__libc_csu_init>:
  401060:	41 57                	push   %r15
  401062:	41 56                	push   %r14
  401064:	41 89 ff             	mov    %edi,%r15d
  401067:	41 55                	push   %r13
  401069:	41 54                	push   %r12
  40106b:	4c 8d 25 66 0d 20 00 	lea    0x200d66(%rip),%r12        # 601dd8 <__frame_dummy_init_array_entry>
  401072:	55                   	push   %rbp
  401073:	48 8d 2d 6e 0d 20 00 	lea    0x200d6e(%rip),%rbp        # 601de8 <__init_array_end>
  40107a:	53                   	push   %rbx
  40107b:	49 89 f6             	mov    %rsi,%r14
  40107e:	49 89 d5             	mov    %rdx,%r13
  401081:	4c 29 e5             	sub    %r12,%rbp
  401084:	48 83 ec 08          	sub    $0x8,%rsp
  401088:	48 c1 fd 03          	sar    $0x3,%rbp
  40108c:	e8 a7 f8 ff ff       	callq  400938 <_init>
  401091:	48 85 ed             	test   %rbp,%rbp
  401094:	74 20                	je     4010b6 <__libc_csu_init+0x56>
  401096:	31 db                	xor    %ebx,%ebx
  401098:	0f 1f 84 00 00 00 00 	nopl   0x0(%rax,%rax,1)
  40109f:	00 
  4010a0:	4c 89 ea             	mov    %r13,%rdx
  4010a3:	4c 89 f6             	mov    %r14,%rsi
  4010a6:	44 89 ff             	mov    %r15d,%edi
  4010a9:	41 ff 14 dc          	callq  *(%r12,%rbx,8)
  4010ad:	48 83 c3 01          	add    $0x1,%rbx
  4010b1:	48 39 eb             	cmp    %rbp,%rbx
  4010b4:	75 ea                	jne    4010a0 <__libc_csu_init+0x40>
  4010b6:	48 83 c4 08          	add    $0x8,%rsp
  4010ba:	5b                   	pop    %rbx
  4010bb:	5d                   	pop    %rbp
  4010bc:	41 5c                	pop    %r12
  4010be:	41 5d                	pop    %r13
  4010c0:	41 5e                	pop    %r14
  4010c2:	41 5f                	pop    %r15
  4010c4:	c3                   	retq   
  4010c5:	90                   	nop
  4010c6:	66 2e 0f 1f 84 00 00 	nopw   %cs:0x0(%rax,%rax,1)
  4010cd:	00 00 00 

00000000004010d0 <__libc_csu_fini>:
  4010d0:	f3 c3                	repz retq 

Disassembly of section .fini:

00000000004010d4 <_fini>:
  4010d4:	48 83 ec 08          	sub    $0x8,%rsp
  4010d8:	48 83 c4 08          	add    $0x8,%rsp
  4010dc:	c3                   	retq   

coop:     file format elf64-x86-64


Disassembly of section .init:

0000000000400938 <_init>:
  400938:	48 83 ec 08          	sub    $0x8,%rsp
  40093c:	48 8b 05 b5 16 20 00 	mov    0x2016b5(%rip),%rax        # 601ff8 <_DYNAMIC+0x200>
  400943:	48 85 c0             	test   %rax,%rax
  400946:	74 05                	je     40094d <_init+0x15>
  400948:	e8 23 01 00 00       	callq  400a70 <fflush@plt+0x10>
  40094d:	48 83 c4 08          	add    $0x8,%rsp
  400951:	c3                   	retq   

Disassembly of section .plt:

0000000000400960 <printf@plt-0x10>:
  400960:	ff 35 a2 16 20 00    	pushq  0x2016a2(%rip)        # 602008 <_GLOBAL_OFFSET_TABLE_+0x8>
  400966:	ff 25 a4 16 20 00    	jmpq   *0x2016a4(%rip)        # 602010 <_GLOBAL_OFFSET_TABLE_+0x10>
  40096c:	0f 1f 40 00          	nopl   0x0(%rax)

0000000000400970 <printf@plt>:
  400970:	ff 25 a2 16 20 00    	jmpq   *0x2016a2(%rip)        # 602018 <_GLOBAL_OFFSET_TABLE_+0x18>
  400976:	68 00 00 00 00       	pushq  $0x0
  40097b:	e9 e0 ff ff ff       	jmpq   400960 <_init+0x28>

0000000000400980 <puts@plt>:
  400980:	ff 25 9a 16 20 00    	jmpq   *0x20169a(%rip)        # 602020 <_GLOBAL_OFFSET_TABLE_+0x20>
  400986:	68 01 00 00 00       	pushq  $0x1
  40098b:	e9 d0 ff ff ff       	jmpq   400960 <_init+0x28>

0000000000400990 <_Znam@plt>:
  400990:	ff 25 92 16 20 00    	jmpq   *0x201692(%rip)        # 602028 <_GLOBAL_OFFSET_TABLE_+0x28>
  400996:	68 02 00 00 00       	pushq  $0x2
  40099b:	e9 c0 ff ff ff       	jmpq   400960 <_init+0x28>

00000000004009a0 <_ZdlPv@plt>:
  4009a0:	ff 25 8a 16 20 00    	jmpq   *0x20168a(%rip)        # 602030 <_GLOBAL_OFFSET_TABLE_+0x30>
  4009a6:	68 03 00 00 00       	pushq  $0x3
  4009ab:	e9 b0 ff ff ff       	jmpq   400960 <_init+0x28>

00000000004009b0 <_ZNSt8ios_base4InitC1Ev@plt>:
  4009b0:	ff 25 82 16 20 00    	jmpq   *0x201682(%rip)        # 602038 <_GLOBAL_OFFSET_TABLE_+0x38>
  4009b6:	68 04 00 00 00       	pushq  $0x4
  4009bb:	e9 a0 ff ff ff       	jmpq   400960 <_init+0x28>

00000000004009c0 <read@plt>:
  4009c0:	ff 25 7a 16 20 00    	jmpq   *0x20167a(%rip)        # 602040 <_GLOBAL_OFFSET_TABLE_+0x40>
  4009c6:	68 05 00 00 00       	pushq  $0x5
  4009cb:	e9 90 ff ff ff       	jmpq   400960 <_init+0x28>

00000000004009d0 <__libc_start_main@plt>:
  4009d0:	ff 25 72 16 20 00    	jmpq   *0x201672(%rip)        # 602048 <_GLOBAL_OFFSET_TABLE_+0x48>
  4009d6:	68 06 00 00 00       	pushq  $0x6
  4009db:	e9 80 ff ff ff       	jmpq   400960 <_init+0x28>

00000000004009e0 <__cxa_atexit@plt>:
  4009e0:	ff 25 6a 16 20 00    	jmpq   *0x20166a(%rip)        # 602050 <_GLOBAL_OFFSET_TABLE_+0x50>
  4009e6:	68 07 00 00 00       	pushq  $0x7
  4009eb:	e9 70 ff ff ff       	jmpq   400960 <_init+0x28>

00000000004009f0 <_ZNSt8ios_base4InitD1Ev@plt>:
  4009f0:	ff 25 62 16 20 00    	jmpq   *0x201662(%rip)        # 602058 <_GLOBAL_OFFSET_TABLE_+0x58>
  4009f6:	68 08 00 00 00       	pushq  $0x8
  4009fb:	e9 60 ff ff ff       	jmpq   400960 <_init+0x28>

0000000000400a00 <__stack_chk_fail@plt>:
  400a00:	ff 25 5a 16 20 00    	jmpq   *0x20165a(%rip)        # 602060 <_GLOBAL_OFFSET_TABLE_+0x60>
  400a06:	68 09 00 00 00       	pushq  $0x9
  400a0b:	e9 50 ff ff ff       	jmpq   400960 <_init+0x28>

0000000000400a10 <dlopen@plt>:
  400a10:	ff 25 52 16 20 00    	jmpq   *0x201652(%rip)        # 602068 <_GLOBAL_OFFSET_TABLE_+0x68>
  400a16:	68 0a 00 00 00       	pushq  $0xa
  400a1b:	e9 40 ff ff ff       	jmpq   400960 <_init+0x28>

0000000000400a20 <dlsym@plt>:
  400a20:	ff 25 4a 16 20 00    	jmpq   *0x20164a(%rip)        # 602070 <_GLOBAL_OFFSET_TABLE_+0x70>
  400a26:	68 0b 00 00 00       	pushq  $0xb
  400a2b:	e9 30 ff ff ff       	jmpq   400960 <_init+0x28>

0000000000400a30 <__gxx_personality_v0@plt>:
  400a30:	ff 25 42 16 20 00    	jmpq   *0x201642(%rip)        # 602078 <_GLOBAL_OFFSET_TABLE_+0x78>
  400a36:	68 0c 00 00 00       	pushq  $0xc
  400a3b:	e9 20 ff ff ff       	jmpq   400960 <_init+0x28>

0000000000400a40 <_Znwm@plt>:
  400a40:	ff 25 3a 16 20 00    	jmpq   *0x20163a(%rip)        # 602080 <_GLOBAL_OFFSET_TABLE_+0x80>
  400a46:	68 0d 00 00 00       	pushq  $0xd
  400a4b:	e9 10 ff ff ff       	jmpq   400960 <_init+0x28>

0000000000400a50 <_Unwind_Resume@plt>:
  400a50:	ff 25 32 16 20 00    	jmpq   *0x201632(%rip)        # 602088 <_GLOBAL_OFFSET_TABLE_+0x88>
  400a56:	68 0e 00 00 00       	pushq  $0xe
  400a5b:	e9 00 ff ff ff       	jmpq   400960 <_init+0x28>

0000000000400a60 <fflush@plt>:
  400a60:	ff 25 2a 16 20 00    	jmpq   *0x20162a(%rip)        # 602090 <_GLOBAL_OFFSET_TABLE_+0x90>
  400a66:	68 0f 00 00 00       	pushq  $0xf
  400a6b:	e9 f0 fe ff ff       	jmpq   400960 <_init+0x28>

Disassembly of section .plt.got:

0000000000400a70 <.plt.got>:
  400a70:	ff 25 82 15 20 00    	jmpq   *0x201582(%rip)        # 601ff8 <_DYNAMIC+0x200>
  400a76:	66 90                	xchg   %ax,%ax

Disassembly of section .text:

0000000000400a80 <_start>:
  400a80:	31 ed                	xor    %ebp,%ebp
  400a82:	49 89 d1             	mov    %rdx,%r9
  400a85:	5e                   	pop    %rsi
  400a86:	48 89 e2             	mov    %rsp,%rdx
  400a89:	48 83 e4 f0          	and    $0xfffffffffffffff0,%rsp
  400a8d:	50                   	push   %rax
  400a8e:	54                   	push   %rsp
  400a8f:	49 c7 c0 a0 10 40 00 	mov    $0x4010a0,%r8
  400a96:	48 c7 c1 30 10 40 00 	mov    $0x401030,%rcx
  400a9d:	48 c7 c7 76 0b 40 00 	mov    $0x400b76,%rdi
  400aa4:	e8 27 ff ff ff       	callq  4009d0 <__libc_start_main@plt>
  400aa9:	f4                   	hlt    
  400aaa:	66 0f 1f 44 00 00    	nopw   0x0(%rax,%rax,1)

0000000000400ab0 <deregister_tm_clones>:
  400ab0:	b8 af 20 60 00       	mov    $0x6020af,%eax
  400ab5:	55                   	push   %rbp
  400ab6:	48 2d a8 20 60 00    	sub    $0x6020a8,%rax
  400abc:	48 83 f8 0e          	cmp    $0xe,%rax
  400ac0:	48 89 e5             	mov    %rsp,%rbp
  400ac3:	76 1b                	jbe    400ae0 <deregister_tm_clones+0x30>
  400ac5:	b8 00 00 00 00       	mov    $0x0,%eax
  400aca:	48 85 c0             	test   %rax,%rax
  400acd:	74 11                	je     400ae0 <deregister_tm_clones+0x30>
  400acf:	5d                   	pop    %rbp
  400ad0:	bf a8 20 60 00       	mov    $0x6020a8,%edi
  400ad5:	ff e0                	jmpq   *%rax
  400ad7:	66 0f 1f 84 00 00 00 	nopw   0x0(%rax,%rax,1)
  400ade:	00 00 
  400ae0:	5d                   	pop    %rbp
  400ae1:	c3                   	retq   
  400ae2:	0f 1f 40 00          	nopl   0x0(%rax)
  400ae6:	66 2e 0f 1f 84 00 00 	nopw   %cs:0x0(%rax,%rax,1)
  400aed:	00 00 00 

0000000000400af0 <register_tm_clones>:
  400af0:	be a8 20 60 00       	mov    $0x6020a8,%esi
  400af5:	55                   	push   %rbp
  400af6:	48 81 ee a8 20 60 00 	sub    $0x6020a8,%rsi
  400afd:	48 c1 fe 03          	sar    $0x3,%rsi
  400b01:	48 89 e5             	mov    %rsp,%rbp
  400b04:	48 89 f0             	mov    %rsi,%rax
  400b07:	48 c1 e8 3f          	shr    $0x3f,%rax
  400b0b:	48 01 c6             	add    %rax,%rsi
  400b0e:	48 d1 fe             	sar    %rsi
  400b11:	74 15                	je     400b28 <register_tm_clones+0x38>
  400b13:	b8 00 00 00 00       	mov    $0x0,%eax
  400b18:	48 85 c0             	test   %rax,%rax
  400b1b:	74 0b                	je     400b28 <register_tm_clones+0x38>
  400b1d:	5d                   	pop    %rbp
  400b1e:	bf a8 20 60 00       	mov    $0x6020a8,%edi
  400b23:	ff e0                	jmpq   *%rax
  400b25:	0f 1f 00             	nopl   (%rax)
  400b28:	5d                   	pop    %rbp
  400b29:	c3                   	retq   
  400b2a:	66 0f 1f 44 00 00    	nopw   0x0(%rax,%rax,1)

0000000000400b30 <__do_global_dtors_aux>:
  400b30:	80 3d d1 15 20 00 00 	cmpb   $0x0,0x2015d1(%rip)        # 602108 <completed.7585>
  400b37:	75 11                	jne    400b4a <__do_global_dtors_aux+0x1a>
  400b39:	55                   	push   %rbp
  400b3a:	48 89 e5             	mov    %rsp,%rbp
  400b3d:	e8 6e ff ff ff       	callq  400ab0 <deregister_tm_clones>
  400b42:	5d                   	pop    %rbp
  400b43:	c6 05 be 15 20 00 01 	movb   $0x1,0x2015be(%rip)        # 602108 <completed.7585>
  400b4a:	f3 c3                	repz retq 
  400b4c:	0f 1f 40 00          	nopl   0x0(%rax)

0000000000400b50 <frame_dummy>:
  400b50:	bf f0 1d 60 00       	mov    $0x601df0,%edi
  400b55:	48 83 3f 00          	cmpq   $0x0,(%rdi)
  400b59:	75 05                	jne    400b60 <frame_dummy+0x10>
  400b5b:	eb 93                	jmp    400af0 <register_tm_clones>
  400b5d:	0f 1f 00             	nopl   (%rax)
  400b60:	b8 00 00 00 00       	mov    $0x0,%eax
  400b65:	48 85 c0             	test   %rax,%rax
  400b68:	74 f1                	je     400b5b <frame_dummy+0xb>
  400b6a:	55                   	push   %rbp
  400b6b:	48 89 e5             	mov    %rsp,%rbp
  400b6e:	ff d0                	callq  *%rax
  400b70:	5d                   	pop    %rbp
  400b71:	e9 7a ff ff ff       	jmpq   400af0 <register_tm_clones>

0000000000400b76 <main>:
  400b76:	55                   	push   %rbp
  400b77:	48 89 e5             	mov    %rsp,%rbp
  400b7a:	53                   	push   %rbx
  400b7b:	48 81 ec 98 00 00 00 	sub    $0x98,%rsp
  400b82:	64 48 8b 04 25 28 00 	mov    %fs:0x28,%rax
  400b89:	00 00 
  400b8b:	48 89 45 e8          	mov    %rax,-0x18(%rbp)
  400b8f:	31 c0                	xor    %eax,%eax
  400b91:	48 8d 85 60 ff ff ff 	lea    -0xa0(%rbp),%rax
  400b98:	48 89 c7             	mov    %rax,%rdi
  400b9b:	e8 5e 04 00 00       	callq  400ffe <_ZN9GuiButtonC1Ev>
  400ba0:	48 8d 45 90          	lea    -0x70(%rbp),%rax
  400ba4:	48 89 c7             	mov    %rax,%rdi
  400ba7:	e8 f0 01 00 00       	callq  400d9c <_ZN7StudentC1Ev>
  400bac:	48 8d 85 70 ff ff ff 	lea    -0x90(%rbp),%rax
  400bb3:	48 89 c7             	mov    %rax,%rdi
  400bb6:	e8 43 02 00 00       	callq  400dfe <_ZN6CourseC1Ev>
  400bbb:	48 8d 45 b0          	lea    -0x50(%rbp),%rax
  400bbf:	48 89 c7             	mov    %rax,%rdi
  400bc2:	e8 4f 04 00 00       	callq  401016 <_ZN4ExamC1Ev>
  400bc7:	48 8d 45 b0          	lea    -0x50(%rbp),%rax
  400bcb:	48 89 c7             	mov    %rax,%rdi
  400bce:	e8 05 01 00 00       	callq  400cd8 <_ZN4Exam10readStringEv>
  400bd3:	48 8d 45 90          	lea    -0x70(%rbp),%rax
  400bd7:	48 89 c7             	mov    %rax,%rdi
  400bda:	e8 d5 01 00 00       	callq  400db4 <_ZN7Student10readStringEv>
  400bdf:	48 8d 45 90          	lea    -0x70(%rbp),%rax
  400be3:	48 8d 50 08          	lea    0x8(%rax),%rdx
  400be7:	48 8d 45 b0          	lea    -0x50(%rbp),%rax
  400beb:	48 89 d6             	mov    %rdx,%rsi
  400bee:	48 89 c7             	mov    %rax,%rdi
  400bf1:	e8 0c 01 00 00       	callq  400d02 <_ZN4Exam12printfStringEPc>
  400bf6:	bb 01 00 00 00       	mov    $0x1,%ebx
  400bfb:	48 8d 85 70 ff ff ff 	lea    -0x90(%rbp),%rax
  400c02:	48 89 c7             	mov    %rax,%rdi
  400c05:	e8 3a 03 00 00       	callq  400f44 <_ZN6CourseD1Ev>
  400c0a:	89 d8                	mov    %ebx,%eax
  400c0c:	48 8b 4d e8          	mov    -0x18(%rbp),%rcx
  400c10:	64 48 33 0c 25 28 00 	xor    %fs:0x28,%rcx
  400c17:	00 00 
  400c19:	74 24                	je     400c3f <main+0xc9>
  400c1b:	eb 1d                	jmp    400c3a <main+0xc4>
  400c1d:	48 89 c3             	mov    %rax,%rbx
  400c20:	48 8d 85 70 ff ff ff 	lea    -0x90(%rbp),%rax
  400c27:	48 89 c7             	mov    %rax,%rdi
  400c2a:	e8 15 03 00 00       	callq  400f44 <_ZN6CourseD1Ev>
  400c2f:	48 89 d8             	mov    %rbx,%rax
  400c32:	48 89 c7             	mov    %rax,%rdi
  400c35:	e8 16 fe ff ff       	callq  400a50 <_Unwind_Resume@plt>
  400c3a:	e8 c1 fd ff ff       	callq  400a00 <__stack_chk_fail@plt>
  400c3f:	48 81 c4 98 00 00 00 	add    $0x98,%rsp
  400c46:	5b                   	pop    %rbx
  400c47:	5d                   	pop    %rbp
  400c48:	c3                   	retq   

0000000000400c49 <_Z41__static_initialization_and_destruction_0ii>:
  400c49:	55                   	push   %rbp
  400c4a:	48 89 e5             	mov    %rsp,%rbp
  400c4d:	48 83 ec 10          	sub    $0x10,%rsp
  400c51:	89 7d fc             	mov    %edi,-0x4(%rbp)
  400c54:	89 75 f8             	mov    %esi,-0x8(%rbp)
  400c57:	83 7d fc 01          	cmpl   $0x1,-0x4(%rbp)
  400c5b:	75 27                	jne    400c84 <_Z41__static_initialization_and_destruction_0ii+0x3b>
  400c5d:	81 7d f8 ff ff 00 00 	cmpl   $0xffff,-0x8(%rbp)
  400c64:	75 1e                	jne    400c84 <_Z41__static_initialization_and_destruction_0ii+0x3b>
  400c66:	bf 09 21 60 00       	mov    $0x602109,%edi
  400c6b:	e8 40 fd ff ff       	callq  4009b0 <_ZNSt8ios_base4InitC1Ev@plt>
  400c70:	ba a0 20 60 00       	mov    $0x6020a0,%edx
  400c75:	be 09 21 60 00       	mov    $0x602109,%esi
  400c7a:	bf f0 09 40 00       	mov    $0x4009f0,%edi
  400c7f:	e8 5c fd ff ff       	callq  4009e0 <__cxa_atexit@plt>
  400c84:	90                   	nop
  400c85:	c9                   	leaveq 
  400c86:	c3                   	retq   

0000000000400c87 <_GLOBAL__sub_I_main>:
  400c87:	55                   	push   %rbp
  400c88:	48 89 e5             	mov    %rsp,%rbp
  400c8b:	be ff ff 00 00       	mov    $0xffff,%esi
  400c90:	bf 01 00 00 00       	mov    $0x1,%edi
  400c95:	e8 af ff ff ff       	callq  400c49 <_Z41__static_initialization_and_destruction_0ii>
  400c9a:	5d                   	pop    %rbp
  400c9b:	c3                   	retq   

0000000000400c9c <_ZN9GuiButton12printfStringEPc>:
  400c9c:	55                   	push   %rbp
  400c9d:	48 89 e5             	mov    %rsp,%rbp
  400ca0:	48 83 ec 10          	sub    $0x10,%rsp
  400ca4:	48 89 7d f8          	mov    %rdi,-0x8(%rbp)
  400ca8:	48 89 75 f0          	mov    %rsi,-0x10(%rbp)
  400cac:	48 8b 45 f0          	mov    -0x10(%rbp),%rax
  400cb0:	48 89 c7             	mov    %rax,%rdi
  400cb3:	e8 c8 fc ff ff       	callq  400980 <puts@plt>
  400cb8:	90                   	nop
  400cb9:	c9                   	leaveq 
  400cba:	c3                   	retq   
  400cbb:	90                   	nop

0000000000400cbc <_ZN9GuiButton7clickedEi>:
  400cbc:	55                   	push   %rbp
  400cbd:	48 89 e5             	mov    %rsp,%rbp
  400cc0:	48 83 ec 10          	sub    $0x10,%rsp
  400cc4:	48 89 7d f8          	mov    %rdi,-0x8(%rbp)
  400cc8:	89 75 f4             	mov    %esi,-0xc(%rbp)
  400ccb:	48 8b 45 f8          	mov    -0x8(%rbp),%rax
  400ccf:	48 8b 40 08          	mov    0x8(%rax),%rax
  400cd3:	ff d0                	callq  *%rax
  400cd5:	90                   	nop
  400cd6:	c9                   	leaveq 
  400cd7:	c3                   	retq   

0000000000400cd8 <_ZN4Exam10readStringEv>:
  400cd8:	55                   	push   %rbp
  400cd9:	48 89 e5             	mov    %rsp,%rbp
  400cdc:	48 83 ec 10          	sub    $0x10,%rsp
  400ce0:	48 89 7d f8          	mov    %rdi,-0x8(%rbp)
  400ce4:	48 8b 45 f8          	mov    -0x8(%rbp),%rax
  400ce8:	48 83 c0 24          	add    $0x24,%rax
  400cec:	ba 00 02 00 00       	mov    $0x200,%edx
  400cf1:	48 89 c6             	mov    %rax,%rsi
  400cf4:	bf 00 00 00 00       	mov    $0x0,%edi
  400cf9:	e8 c2 fc ff ff       	callq  4009c0 <read@plt>
  400cfe:	90                   	nop
  400cff:	c9                   	leaveq 
  400d00:	c3                   	retq   
  400d01:	90                   	nop

0000000000400d02 <_ZN4Exam12printfStringEPc>:
  400d02:	55                   	push   %rbp
  400d03:	48 89 e5             	mov    %rsp,%rbp
  400d06:	48 83 ec 10          	sub    $0x10,%rsp
  400d0a:	48 89 7d f8          	mov    %rdi,-0x8(%rbp)
  400d0e:	48 89 75 f0          	mov    %rsi,-0x10(%rbp)
  400d12:	48 8b 45 f0          	mov    -0x10(%rbp),%rax
  400d16:	48 89 c7             	mov    %rax,%rdi
  400d19:	e8 62 fc ff ff       	callq  400980 <puts@plt>
  400d1e:	90                   	nop
  400d1f:	c9                   	leaveq 
  400d20:	c3                   	retq   
  400d21:	90                   	nop

0000000000400d22 <_ZN4Exam8sumScoreERl>:
  400d22:	55                   	push   %rbp
  400d23:	48 89 e5             	mov    %rsp,%rbp
  400d26:	48 89 7d f8          	mov    %rdi,-0x8(%rbp)
  400d2a:	48 89 75 f0          	mov    %rsi,-0x10(%rbp)
  400d2e:	48 8b 45 f8          	mov    -0x8(%rbp),%rax
  400d32:	8b 50 08             	mov    0x8(%rax),%edx
  400d35:	48 8b 45 f8          	mov    -0x8(%rbp),%rax
  400d39:	8b 40 0c             	mov    0xc(%rax),%eax
  400d3c:	01 c2                	add    %eax,%edx
  400d3e:	48 8b 45 f8          	mov    -0x8(%rbp),%rax
  400d42:	8b 40 10             	mov    0x10(%rax),%eax
  400d45:	01 d0                	add    %edx,%eax
  400d47:	48 63 d0             	movslq %eax,%rdx
  400d4a:	48 8b 45 f0          	mov    -0x10(%rbp),%rax
  400d4e:	48 89 10             	mov    %rdx,(%rax)
  400d51:	90                   	nop
  400d52:	5d                   	pop    %rbp
  400d53:	c3                   	retq   

0000000000400d54 <_ZN4Exam16getWeightedScoreEv>:
  400d54:	55                   	push   %rbp
  400d55:	48 89 e5             	mov    %rsp,%rbp
  400d58:	48 89 7d f8          	mov    %rdi,-0x8(%rbp)
  400d5c:	48 8b 45 f8          	mov    -0x8(%rbp),%rax
  400d60:	8b 50 08             	mov    0x8(%rax),%edx
  400d63:	89 d0                	mov    %edx,%eax
  400d65:	c1 e0 02             	shl    $0x2,%eax
  400d68:	8d 0c 10             	lea    (%rax,%rdx,1),%ecx
  400d6b:	48 8b 45 f8          	mov    -0x8(%rbp),%rax
  400d6f:	8b 50 0c             	mov    0xc(%rax),%edx
  400d72:	89 d0                	mov    %edx,%eax
  400d74:	01 c0                	add    %eax,%eax
  400d76:	01 d0                	add    %edx,%eax
  400d78:	8d 14 01             	lea    (%rcx,%rax,1),%edx
  400d7b:	48 8b 45 f8          	mov    -0x8(%rbp),%rax
  400d7f:	8b 40 10             	mov    0x10(%rax),%eax
  400d82:	01 c0                	add    %eax,%eax
  400d84:	8d 0c 02             	lea    (%rdx,%rax,1),%ecx
  400d87:	ba 56 55 55 55       	mov    $0x55555556,%edx
  400d8c:	89 c8                	mov    %ecx,%eax
  400d8e:	f7 ea                	imul   %edx
  400d90:	89 c8                	mov    %ecx,%eax
  400d92:	c1 f8 1f             	sar    $0x1f,%eax
  400d95:	29 c2                	sub    %eax,%edx
  400d97:	89 d0                	mov    %edx,%eax
  400d99:	5d                   	pop    %rbp
  400d9a:	c3                   	retq   
  400d9b:	90                   	nop

0000000000400d9c <_ZN7StudentC1Ev>:
  400d9c:	55                   	push   %rbp
  400d9d:	48 89 e5             	mov    %rsp,%rbp
  400da0:	48 89 7d f8          	mov    %rdi,-0x8(%rbp)
  400da4:	ba 08 11 40 00       	mov    $0x401108,%edx
  400da9:	48 8b 45 f8          	mov    -0x8(%rbp),%rax
  400dad:	48 89 10             	mov    %rdx,(%rax)
  400db0:	90                   	nop
  400db1:	5d                   	pop    %rbp
  400db2:	c3                   	retq   
  400db3:	90                   	nop

0000000000400db4 <_ZN7Student10readStringEv>:
  400db4:	55                   	push   %rbp
  400db5:	48 89 e5             	mov    %rsp,%rbp
  400db8:	48 83 ec 10          	sub    $0x10,%rsp
  400dbc:	48 89 7d f8          	mov    %rdi,-0x8(%rbp)
  400dc0:	48 8b 45 f8          	mov    -0x8(%rbp),%rax
  400dc4:	48 83 c0 08          	add    $0x8,%rax
  400dc8:	ba 00 02 00 00       	mov    $0x200,%edx
  400dcd:	48 89 c6             	mov    %rax,%rsi
  400dd0:	bf 00 00 00 00       	mov    $0x0,%edi
  400dd5:	e8 e6 fb ff ff       	callq  4009c0 <read@plt>
  400dda:	90                   	nop
  400ddb:	c9                   	leaveq 
  400ddc:	c3                   	retq   
  400ddd:	90                   	nop

0000000000400dde <_ZN7Student12printfStringEPc>:
  400dde:	55                   	push   %rbp
  400ddf:	48 89 e5             	mov    %rsp,%rbp
  400de2:	48 83 ec 10          	sub    $0x10,%rsp
  400de6:	48 89 7d f8          	mov    %rdi,-0x8(%rbp)
  400dea:	48 89 75 f0          	mov    %rsi,-0x10(%rbp)
  400dee:	48 8b 45 f0          	mov    -0x10(%rbp),%rax
  400df2:	48 89 c7             	mov    %rax,%rdi
  400df5:	e8 86 fb ff ff       	callq  400980 <puts@plt>
  400dfa:	90                   	nop
  400dfb:	c9                   	leaveq 
  400dfc:	c3                   	retq   
  400dfd:	90                   	nop

0000000000400dfe <_ZN6CourseC1Ev>:
  400dfe:	55                   	push   %rbp
  400dff:	48 89 e5             	mov    %rsp,%rbp
  400e02:	53                   	push   %rbx
  400e03:	48 83 ec 28          	sub    $0x28,%rsp
  400e07:	48 89 7d d8          	mov    %rdi,-0x28(%rbp)
  400e0b:	ba d8 10 40 00       	mov    $0x4010d8,%edx
  400e10:	48 8b 45 d8          	mov    -0x28(%rbp),%rax
  400e14:	48 89 10             	mov    %rdx,(%rax)
  400e17:	48 8b 45 d8          	mov    -0x28(%rbp),%rax
  400e1b:	c7 40 10 0a 00 00 00 	movl   $0xa,0x10(%rax)
  400e22:	48 8b 45 d8          	mov    -0x28(%rbp),%rax
  400e26:	8b 40 10             	mov    0x10(%rax),%eax
  400e29:	48 63 d8             	movslq %eax,%rbx
  400e2c:	48 b8 00 00 00 00 00 	movabs $0xfe0000000000000,%rax
  400e33:	00 e0 0f 
  400e36:	48 39 c3             	cmp    %rax,%rbx
  400e39:	77 0a                	ja     400e45 <_ZN6CourseC1Ev+0x47>
  400e3b:	48 8d 04 dd 00 00 00 	lea    0x0(,%rbx,8),%rax
  400e42:	00 
  400e43:	eb 07                	jmp    400e4c <_ZN6CourseC1Ev+0x4e>
  400e45:	48 c7 c0 ff ff ff ff 	mov    $0xffffffffffffffff,%rax
  400e4c:	48 89 c7             	mov    %rax,%rdi
  400e4f:	e8 3c fb ff ff       	callq  400990 <_Znam@plt>
  400e54:	48 89 c1             	mov    %rax,%rcx
  400e57:	48 89 ce             	mov    %rcx,%rsi
  400e5a:	48 8d 43 ff          	lea    -0x1(%rbx),%rax
  400e5e:	48 89 c2             	mov    %rax,%rdx
  400e61:	48 89 f0             	mov    %rsi,%rax
  400e64:	48 83 fa ff          	cmp    $0xffffffffffffffff,%rdx
  400e68:	74 11                	je     400e7b <_ZN6CourseC1Ev+0x7d>
  400e6a:	48 c7 00 00 00 00 00 	movq   $0x0,(%rax)
  400e71:	48 83 c0 08          	add    $0x8,%rax
  400e75:	48 83 ea 01          	sub    $0x1,%rdx
  400e79:	eb e9                	jmp    400e64 <_ZN6CourseC1Ev+0x66>
  400e7b:	48 8b 45 d8          	mov    -0x28(%rbp),%rax
  400e7f:	48 89 48 08          	mov    %rcx,0x8(%rax)
  400e83:	c7 45 ec 00 00 00 00 	movl   $0x0,-0x14(%rbp)
  400e8a:	48 8b 45 d8          	mov    -0x28(%rbp),%rax
  400e8e:	8b 40 10             	mov    0x10(%rax),%eax
  400e91:	3b 45 ec             	cmp    -0x14(%rbp),%eax
  400e94:	7e 33                	jle    400ec9 <_ZN6CourseC1Ev+0xcb>
  400e96:	bf 18 00 00 00       	mov    $0x18,%edi
  400e9b:	e8 a0 fb ff ff       	callq  400a40 <_Znwm@plt>
  400ea0:	48 89 c3             	mov    %rax,%rbx
  400ea3:	48 89 df             	mov    %rbx,%rdi
  400ea6:	e8 f1 fe ff ff       	callq  400d9c <_ZN7StudentC1Ev>
  400eab:	48 8b 45 d8          	mov    -0x28(%rbp),%rax
  400eaf:	48 8b 40 08          	mov    0x8(%rax),%rax
  400eb3:	8b 55 ec             	mov    -0x14(%rbp),%edx
  400eb6:	48 63 d2             	movslq %edx,%rdx
  400eb9:	48 c1 e2 03          	shl    $0x3,%rdx
  400ebd:	48 01 d0             	add    %rdx,%rax
  400ec0:	48 89 18             	mov    %rbx,(%rax)
  400ec3:	83 45 ec 01          	addl   $0x1,-0x14(%rbp)
  400ec7:	eb c1                	jmp    400e8a <_ZN6CourseC1Ev+0x8c>
  400ec9:	90                   	nop
  400eca:	48 83 c4 28          	add    $0x28,%rsp
  400ece:	5b                   	pop    %rbx
  400ecf:	5d                   	pop    %rbp
  400ed0:	c3                   	retq   
  400ed1:	90                   	nop

0000000000400ed2 <_ZN6Course5mLoopEPc>:
  400ed2:	55                   	push   %rbp
  400ed3:	48 89 e5             	mov    %rsp,%rbp
  400ed6:	48 83 ec 20          	sub    $0x20,%rsp
  400eda:	48 89 7d e8          	mov    %rdi,-0x18(%rbp)
  400ede:	48 89 75 e0          	mov    %rsi,-0x20(%rbp)
  400ee2:	c7 45 fc 00 00 00 00 	movl   $0x0,-0x4(%rbp)
  400ee9:	48 8b 45 e8          	mov    -0x18(%rbp),%rax
  400eed:	8b 40 10             	mov    0x10(%rax),%eax
  400ef0:	3b 45 fc             	cmp    -0x4(%rbp),%eax
  400ef3:	7e 4c                	jle    400f41 <_ZN6Course5mLoopEPc+0x6f>
  400ef5:	48 8b 45 e8          	mov    -0x18(%rbp),%rax
  400ef9:	48 8b 40 08          	mov    0x8(%rax),%rax
  400efd:	8b 55 fc             	mov    -0x4(%rbp),%edx
  400f00:	48 63 d2             	movslq %edx,%rdx
  400f03:	48 c1 e2 03          	shl    $0x3,%rdx
  400f07:	48 01 d0             	add    %rdx,%rax
  400f0a:	48 8b 00             	mov    (%rax),%rax
  400f0d:	48 8b 00             	mov    (%rax),%rax
  400f10:	48 83 c0 08          	add    $0x8,%rax
  400f14:	48 8b 00             	mov    (%rax),%rax
  400f17:	48 8b 55 e8          	mov    -0x18(%rbp),%rdx
  400f1b:	48 8b 52 08          	mov    0x8(%rdx),%rdx
  400f1f:	8b 4d fc             	mov    -0x4(%rbp),%ecx
  400f22:	48 63 c9             	movslq %ecx,%rcx
  400f25:	48 c1 e1 03          	shl    $0x3,%rcx
  400f29:	48 01 ca             	add    %rcx,%rdx
  400f2c:	48 8b 12             	mov    (%rdx),%rdx
  400f2f:	48 8b 4d e0          	mov    -0x20(%rbp),%rcx
  400f33:	48 89 ce             	mov    %rcx,%rsi
  400f36:	48 89 d7             	mov    %rdx,%rdi
  400f39:	ff d0                	callq  *%rax
  400f3b:	83 45 fc 01          	addl   $0x1,-0x4(%rbp)
  400f3f:	eb a8                	jmp    400ee9 <_ZN6Course5mLoopEPc+0x17>
  400f41:	90                   	nop
  400f42:	c9                   	leaveq 
  400f43:	c3                   	retq   

0000000000400f44 <_ZN6CourseD1Ev>:
  400f44:	55                   	push   %rbp
  400f45:	48 89 e5             	mov    %rsp,%rbp
  400f48:	48 83 ec 10          	sub    $0x10,%rsp
  400f4c:	48 89 7d f8          	mov    %rdi,-0x8(%rbp)
  400f50:	ba d8 10 40 00       	mov    $0x4010d8,%edx
  400f55:	48 8b 45 f8          	mov    -0x8(%rbp),%rax
  400f59:	48 89 10             	mov    %rdx,(%rax)
  400f5c:	48 8b 45 f8          	mov    -0x8(%rbp),%rax
  400f60:	48 8b 40 08          	mov    0x8(%rax),%rax
  400f64:	48 89 c7             	mov    %rax,%rdi
  400f67:	e8 34 fa ff ff       	callq  4009a0 <_ZdlPv@plt>
  400f6c:	b8 00 00 00 00       	mov    $0x0,%eax
  400f71:	85 c0                	test   %eax,%eax
  400f73:	74 0c                	je     400f81 <_ZN6CourseD1Ev+0x3d>
  400f75:	48 8b 45 f8          	mov    -0x8(%rbp),%rax
  400f79:	48 89 c7             	mov    %rax,%rdi
  400f7c:	e8 1f fa ff ff       	callq  4009a0 <_ZdlPv@plt>
  400f81:	c9                   	leaveq 
  400f82:	c3                   	retq   
  400f83:	90                   	nop

0000000000400f84 <_ZN6CourseD0Ev>:
  400f84:	55                   	push   %rbp
  400f85:	48 89 e5             	mov    %rsp,%rbp
  400f88:	48 83 ec 10          	sub    $0x10,%rsp
  400f8c:	48 89 7d f8          	mov    %rdi,-0x8(%rbp)
  400f90:	48 8b 45 f8          	mov    -0x8(%rbp),%rax
  400f94:	48 89 c7             	mov    %rax,%rdi
  400f97:	e8 a8 ff ff ff       	callq  400f44 <_ZN6CourseD1Ev>
  400f9c:	48 8b 45 f8          	mov    -0x8(%rbp),%rax
  400fa0:	48 89 c7             	mov    %rax,%rdi
  400fa3:	e8 f8 f9 ff ff       	callq  4009a0 <_ZdlPv@plt>
  400fa8:	c9                   	leaveq 
  400fa9:	c3                   	retq   

0000000000400faa <_ZN6Course12printfSystemEv>:
  400faa:	55                   	push   %rbp
  400fab:	48 89 e5             	mov    %rsp,%rbp
  400fae:	48 83 ec 20          	sub    $0x20,%rsp
  400fb2:	48 89 7d e8          	mov    %rdi,-0x18(%rbp)
  400fb6:	be 01 00 00 00       	mov    $0x1,%esi
  400fbb:	bf b4 10 40 00       	mov    $0x4010b4,%edi
  400fc0:	e8 4b fa ff ff       	callq  400a10 <dlopen@plt>
  400fc5:	48 89 45 f8          	mov    %rax,-0x8(%rbp)
  400fc9:	48 8b 45 f8          	mov    -0x8(%rbp),%rax
  400fcd:	be be 10 40 00       	mov    $0x4010be,%esi
  400fd2:	48 89 c7             	mov    %rax,%rdi
  400fd5:	e8 46 fa ff ff       	callq  400a20 <dlsym@plt>
  400fda:	48 89 c6             	mov    %rax,%rsi
  400fdd:	bf c4 10 40 00       	mov    $0x4010c4,%edi
  400fe2:	b8 00 00 00 00       	mov    $0x0,%eax
  400fe7:	e8 84 f9 ff ff       	callq  400970 <printf@plt>
  400fec:	48 8b 05 0d 11 20 00 	mov    0x20110d(%rip),%rax        # 602100 <stdout@@GLIBC_2.2.5>
  400ff3:	48 89 c7             	mov    %rax,%rdi
  400ff6:	e8 65 fa ff ff       	callq  400a60 <fflush@plt>
  400ffb:	90                   	nop
  400ffc:	c9                   	leaveq 
  400ffd:	c3                   	retq   

0000000000400ffe <_ZN9GuiButtonC1Ev>:
  400ffe:	55                   	push   %rbp
  400fff:	48 89 e5             	mov    %rsp,%rbp
  401002:	48 89 7d f8          	mov    %rdi,-0x8(%rbp)
  401006:	ba 58 11 40 00       	mov    $0x401158,%edx
  40100b:	48 8b 45 f8          	mov    -0x8(%rbp),%rax
  40100f:	48 89 10             	mov    %rdx,(%rax)
  401012:	90                   	nop
  401013:	5d                   	pop    %rbp
  401014:	c3                   	retq   
  401015:	90                   	nop

0000000000401016 <_ZN4ExamC1Ev>:
  401016:	55                   	push   %rbp
  401017:	48 89 e5             	mov    %rsp,%rbp
  40101a:	48 89 7d f8          	mov    %rdi,-0x8(%rbp)
  40101e:	ba 28 11 40 00       	mov    $0x401128,%edx
  401023:	48 8b 45 f8          	mov    -0x8(%rbp),%rax
  401027:	48 89 10             	mov    %rdx,(%rax)
  40102a:	90                   	nop
  40102b:	5d                   	pop    %rbp
  40102c:	c3                   	retq   
  40102d:	0f 1f 00             	nopl   (%rax)

0000000000401030 <__libc_csu_init>:
  401030:	41 57                	push   %r15
  401032:	41 56                	push   %r14
  401034:	41 89 ff             	mov    %edi,%r15d
  401037:	41 55                	push   %r13
  401039:	41 54                	push   %r12
  40103b:	4c 8d 25 96 0d 20 00 	lea    0x200d96(%rip),%r12        # 601dd8 <__frame_dummy_init_array_entry>
  401042:	55                   	push   %rbp
  401043:	48 8d 2d 9e 0d 20 00 	lea    0x200d9e(%rip),%rbp        # 601de8 <__init_array_end>
  40104a:	53                   	push   %rbx
  40104b:	49 89 f6             	mov    %rsi,%r14
  40104e:	49 89 d5             	mov    %rdx,%r13
  401051:	4c 29 e5             	sub    %r12,%rbp
  401054:	48 83 ec 08          	sub    $0x8,%rsp
  401058:	48 c1 fd 03          	sar    $0x3,%rbp
  40105c:	e8 d7 f8 ff ff       	callq  400938 <_init>
  401061:	48 85 ed             	test   %rbp,%rbp
  401064:	74 20                	je     401086 <__libc_csu_init+0x56>
  401066:	31 db                	xor    %ebx,%ebx
  401068:	0f 1f 84 00 00 00 00 	nopl   0x0(%rax,%rax,1)
  40106f:	00 
  401070:	4c 89 ea             	mov    %r13,%rdx
  401073:	4c 89 f6             	mov    %r14,%rsi
  401076:	44 89 ff             	mov    %r15d,%edi
  401079:	41 ff 14 dc          	callq  *(%r12,%rbx,8)
  40107d:	48 83 c3 01          	add    $0x1,%rbx
  401081:	48 39 eb             	cmp    %rbp,%rbx
  401084:	75 ea                	jne    401070 <__libc_csu_init+0x40>
  401086:	48 83 c4 08          	add    $0x8,%rsp
  40108a:	5b                   	pop    %rbx
  40108b:	5d                   	pop    %rbp
  40108c:	41 5c                	pop    %r12
  40108e:	41 5d                	pop    %r13
  401090:	41 5e                	pop    %r14
  401092:	41 5f                	pop    %r15
  401094:	c3                   	retq   
  401095:	90                   	nop
  401096:	66 2e 0f 1f 84 00 00 	nopw   %cs:0x0(%rax,%rax,1)
  40109d:	00 00 00 

00000000004010a0 <__libc_csu_fini>:
  4010a0:	f3 c3                	repz retq 

Disassembly of section .fini:

00000000004010a4 <_fini>:
  4010a4:	48 83 ec 08          	sub    $0x8,%rsp
  4010a8:	48 83 c4 08          	add    $0x8,%rsp
  4010ac:	c3                   	retq   
